
not232.elf:     file format elf32-littleriscv
not232.elf
architecture: riscv:rv32, flags 0x00000112:
EXEC_P, HAS_SYMS, D_PAGED
start address 0x00000000

Program Header:
    LOAD off    0x00001000 vaddr 0x00000000 paddr 0x00000000 align 2**12
         filesz 0x00004430 memsz 0x00004430 flags r-x
    LOAD off    0x00006000 vaddr 0x20000000 paddr 0x00004430 align 2**12
         filesz 0x000000a0 memsz 0x00002958 flags rw-
    LOAD off    0x00006800 vaddr 0x20004800 paddr 0x20004800 align 2**12
         filesz 0x00000000 memsz 0x00000800 flags rw-

Sections:
Idx Name          Size      VMA       LMA       File off  Algn
  0 .init         00000004  00000000  00000000  00001000  2**1
                  CONTENTS, ALLOC, LOAD, READONLY, CODE
  1 .vector       000000fc  00000004  00000004  00001004  2**1
                  CONTENTS, ALLOC, LOAD, READONLY, CODE
  2 .text         00004330  00000100  00000100  00001100  2**2
                  CONTENTS, ALLOC, LOAD, READONLY, CODE
  3 .fini         00000000  00004430  00004430  000060a0  2**0
                  CONTENTS, ALLOC, LOAD, CODE
  4 .dalign       00000000  20000000  20000000  000060a0  2**0
                  CONTENTS
  5 .dlalign      00000000  00004430  00004430  000060a0  2**0
                  CONTENTS
  6 .data         000000a0  20000000  00004430  00006000  2**2
                  CONTENTS, ALLOC, LOAD, DATA
  7 .bss          000028b8  200000a0  000044d0  000060a0  2**2
                  ALLOC
  8 .stack        00000800  20004800  20004800  00006800  2**0
                  ALLOC
  9 .debug_info   000172ed  00000000  00000000  000060a0  2**0
                  CONTENTS, READONLY, DEBUGGING
 10 .debug_abbrev 00003c0e  00000000  00000000  0001d38d  2**0
                  CONTENTS, READONLY, DEBUGGING
 11 .debug_loc    00006b5c  00000000  00000000  00020f9b  2**0
                  CONTENTS, READONLY, DEBUGGING
 12 .debug_aranges 00000b20  00000000  00000000  00027af8  2**3
                  CONTENTS, READONLY, DEBUGGING
 13 .debug_ranges 00001208  00000000  00000000  00028618  2**3
                  CONTENTS, READONLY, DEBUGGING
 14 .debug_line   00011926  00000000  00000000  00029820  2**0
                  CONTENTS, READONLY, DEBUGGING
 15 .debug_str    000039b4  00000000  00000000  0003b146  2**0
                  CONTENTS, READONLY, DEBUGGING
 16 .comment      00000033  00000000  00000000  0003eafa  2**0
                  CONTENTS, READONLY
 17 .debug_frame  00002018  00000000  00000000  0003eb30  2**2
                  CONTENTS, READONLY, DEBUGGING
 18 .stab         00000084  00000000  00000000  00040b48  2**2
                  CONTENTS, READONLY, DEBUGGING
 19 .stabstr      00000117  00000000  00000000  00040bcc  2**0
                  CONTENTS, READONLY, DEBUGGING
SYMBOL TABLE:
00000000 l    d  .init	00000000 .init
00000004 l    d  .vector	00000000 .vector
00000100 l    d  .text	00000000 .text
00004430 l    d  .fini	00000000 .fini
20000000 l    d  .dalign	00000000 .dalign
00004430 l    d  .dlalign	00000000 .dlalign
20000000 l    d  .data	00000000 .data
200000a0 l    d  .bss	00000000 .bss
20004800 l    d  .stack	00000000 .stack
00000000 l    d  .debug_info	00000000 .debug_info
00000000 l    d  .debug_abbrev	00000000 .debug_abbrev
00000000 l    d  .debug_loc	00000000 .debug_loc
00000000 l    d  .debug_aranges	00000000 .debug_aranges
00000000 l    d  .debug_ranges	00000000 .debug_ranges
00000000 l    d  .debug_line	00000000 .debug_line
00000000 l    d  .debug_str	00000000 .debug_str
00000000 l    d  .comment	00000000 .comment
00000000 l    d  .debug_frame	00000000 .debug_frame
00000000 l    d  .stab	00000000 .stab
00000000 l    d  .stabstr	00000000 .stabstr
00000000 l    df *ABS*	00000000 ./Startup/startup_ch32v20x_D6.o
00000004 l       .vector	00000000 _vector_base
00000000 l    df *ABS*	00000000 comms.c
00000208 l     F .text	0000000e spi_delay_nops
00000000 l    df *ABS*	00000000 i2c.c
00000fe6 l     F .text	0000000e i2c_delay
00000ff4 l     F .text	00000036 i2c_start
0000102a l     F .text	00000078 i2c_send_byte
000010a2 l     F .text	0000002c i2c_stop
000010ce l     F .text	00000080 i2c_recv_byte
00000000 l    df *ABS*	00000000 execute.c
00000000 l    df *ABS*	00000000 opcodes.c
00000000 l    df *ABS*	00000000 ch32v20x_usbfs_device.c
20000080 l     O .data	00000007 g_line_coding
00000000 l    df *ABS*	00000000 usb_serial.c
00001f3a l     F .text	00000090 tx_kick
200009e4 l     O .bss	00000800 tx_ring
200001e4 l     O .bss	00000800 rx_ring
200000bc l     O .bss	00000002 rx_head
200000be l     O .bss	00000002 rx_tail
200000c0 l     O .bss	00000002 tx_head
200000c2 l     O .bss	00000001 tx_pending_kick
200000c4 l     O .bss	00000002 tx_tail
00000000 l    df *ABS*	00000000 ch32v20x_it.c
00000000 l    df *ABS*	00000000 main.c
00000000 l    df *ABS*	00000000 system_ch32v20x.c
00000000 l    df *ABS*	00000000 ch32v20x_adc.c
00000000 l    df *ABS*	00000000 ch32v20x_exti.c
00000000 l    df *ABS*	00000000 ch32v20x_gpio.c
00000000 l    df *ABS*	00000000 ch32v20x_misc.c
00000000 l    df *ABS*	00000000 ch32v20x_rcc.c
20000010 l     O .data	00000010 APBAHBPrescTable
2000008c l     O .data	00000004 ADCPrescTable
00000000 l    df *ABS*	00000000 ch32v20x_tim.c
00000000 l    df *ABS*	00000000 ch32v20x_usart.c
00000000 l    df *ABS*	00000000 debug.c
200000d8 l     O .bss	00000002 p_ms
200000da l     O .bss	00000001 p_us
20000090 l     O .data	00000004 curbrk.4702
00000000 l    df *ABS*	00000000 libgcc2.c
00000000 l    df *ABS*	00000000 memcpy.c
00000000 l    df *ABS*	00000000 puts.c
00000000 l    df *ABS*	00000000 wbuf.c
00000000 l    df *ABS*	00000000 wsetup.c
00000000 l    df *ABS*	00000000 fflush.c
00000000 l    df *ABS*	00000000 findfp.c
00003b0c l     F .text	00000066 std
00000000 l    df *ABS*	00000000 fwalk.c
00000000 l    df *ABS*	00000000 makebuf.c
00000000 l    df *ABS*	00000000 nano-mallocr.c
00000000 l    df *ABS*	00000000 nano-mallocr.c
00000000 l    df *ABS*	00000000 sbrkr.c
00000000 l    df *ABS*	00000000 stdio.c
00000000 l    df *ABS*	00000000 writer.c
00000000 l    df *ABS*	00000000 closer.c
00000000 l    df *ABS*	00000000 fstatr.c
00000000 l    df *ABS*	00000000 isattyr.c
00000000 l    df *ABS*	00000000 lseekr.c
00000000 l    df *ABS*	00000000 mlock.c
00000000 l    df *ABS*	00000000 readr.c
00000000 l    df *ABS*	00000000 close.c
00000000 l    df *ABS*	00000000 fstat.c
00000000 l    df *ABS*	00000000 isatty.c
00000000 l    df *ABS*	00000000 lseek.c
00000000 l    df *ABS*	00000000 read.c
00000000 l    df *ABS*	00000000 usb_desc.c
00000000 l    df *ABS*	00000000 libgcc2.c
00000000 l    df *ABS*	00000000 impure.c
20000020 l     O .data	00000060 impure_data
00000000 l    df *ABS*	00000000 reent.c
000022a0 g     F .text	00000008 EXTI2_IRQHandler
00004104 g     F .text	00000030 _isatty_r
000042ac g     O .text	00000016 MySerNumInfo
200000b4 g     O .bss	00000002 USBFS_SetupReqValue
000036de g     F .text	000000d4 _puts_r
00004134 g     F .text	00000034 _lseek_r
000016a2 g     F .text	0000002c reads_registers
00001fca g     F .text	00000026 usbSerial_available
20000880 g       .data	00000000 __global_pointer$
00000108 g     F .text	00000028 .hidden __riscv_save_8
000002ee g     F .text	00000096 set_duty
000026f6  w      .text	00000000 TIM1_CC_IRQHandler
00004036 g     F .text	00000030 __sseek
00003bc2 g     F .text	0000006c __sinit
000037be g     F .text	000000bc __swbuf_r
00002230 g     F .text	00000010 HardFault_Handler
00003b7c g     F .text	00000046 __sfmoreglue
0000416a g     F .text	00000002 __malloc_unlock
00000154 g     F .text	0000000c .hidden __riscv_restore_3
000020a0 g     F .text	00000028 usbSerial_blocking_read_u32
00002f9a g     F .text	0000000e TIM_OC1PreloadConfig
000026f6  w      .text	00000000 SysTick_Handler
0000283a g     F .text	0000000a ADC_StartCalibration
00002b2c g     F .text	00000062 NVIC_Init
0000202c g     F .text	00000074 usbSerial_writeP
000026f6  w      .text	00000000 PVD_IRQHandler
00000140 g     F .text	00000020 .hidden __riscv_restore_10
0000222e g     F .text	00000002 NMI_Handler
000022a8 g     F .text	00000008 EXTI3_IRQHandler
00000108 g     F .text	00000028 .hidden __riscv_save_11
000003c8 g     F .text	0000000e neopixel_send_bit
00001744 g     F .text	00000016 USBFS_RCC_Init
000030b6 g     F .text	0000000a USART_GetFlagStatus
000040d2 g     F .text	00000032 _fstat_r
20002954 g     O .bss	00000004 errno
000031c6 g     F .text	0000000c reset_timer
000022fc g     F .text	000000b2 CH_init
200000a0 g       .bss	00000000 _sbss
00000800 g       *ABS*	00000000 __stack_size
0000294c g     F .text	0000000a ADC_GetFlagStatus
200000b0 g     O .bss	00000002 USBFS_SetupReqLen
000031d2 g     F .text	00000060 USART_Printf_Init
00001906 g     F .text	000005f8 USBFS_IRQHandler
00000154 g     F .text	0000000c .hidden __riscv_restore_2
00002924 g     F .text	00000014 ADC_InjectedDiscModeCmd
00001efe g     F .text	00000022 usbSerial_begin
00004270 g     O .text	00000012 MyDevDescr
00002f6a g     F .text	00000016 TIM_CtrlPWMOutputs
0000362c g     F .text	000000b2 memcpy
00002818 g     F .text	00000010 ADC_Cmd
0000215c g     F .text	00000014 usbSerial_blocking_writeP_u32
00003b72 g     F .text	0000000a _cleanup_r
000020f8 g     F .text	0000003c usbSerial_send_zlp
00002290 g     F .text	00000008 EXTI0_IRQHandler
000026f6  w      .text	00000000 I2C2_EV_IRQHandler
00002f52 g     F .text	00000018 TIM_Cmd
000037b2 g     F .text	0000000c puts
0000053c g     F .text	00000aaa get_packet
00002fcc g     F .text	00000016 TIM_OC4PreloadConfig
20000088 g     O .data	00000004 SystemCoreClock
20000124 g     O .bss	00000040 USBFS_EP1_Buf
00002fe6 g     F .text	0000000c TIM_ClearFlag
00000384 g     F .text	00000022 neopixel_send_0
000041b0 g     F .text	00000010 _fstat
00000004 g       .init	00000000 _einit
00002c96 g     F .text	0000001e RCC_APB2PeriphClockCmd
00000100 g     F .text	00000030 .hidden __riscv_save_12
000026f6  w      .text	00000000 ADC1_2_IRQHandler
000020c8 g     F .text	0000000a usbSerial_flush
00002a08 g     F .text	000000f2 GPIO_Init
00002ba8 g     F .text	00000012 RCC_ADCCLKConfig
000026f6  w      .text	00000000 Break_Point_Handler
00001204 g     F .text	0000006a i2c_send_recv_bytes
00000140 g     F .text	00000020 .hidden __riscv_restore_11
200000d4 g     O .bss	00000004 NVIC_Priority_Group
000026f6  w      .text	00000000 SPI1_IRQHandler
00002828 g     F .text	0000000a ADC_ResetCalibration
00003098 g     F .text	00000016 USART_Cmd
00003f90 g     F .text	00000032 _sbrk_r
000026f6  w      .text	00000000 TAMPER_IRQHandler
00000130 g     F .text	0000000c .hidden __riscv_save_1
20000098 g     O .data	00000004 MyLangDescr
00000154 g     F .text	0000000c .hidden __riscv_restore_0
00002e52 g     F .text	00000094 TIM_OC3Init
0000416c g     F .text	00000034 _read_r
00000116 g     F .text	0000001a .hidden __riscv_save_7
00003180 g     F .text	0000002a start_timer_us_u32
00002240 g     F .text	00000050 capture_pulse
00002cb4 g     F .text	0000001e RCC_APB1PeriphClockCmd
000026f6  w      .text	00000000 Ecall_M_Mode_Handler
0000422c g     O .text	00000043 MyCfgDescr
20004800 g       .stack	00000000 _heap_end
000011b8 g     F .text	0000004c i2c_recv_bytes
000041c0 g     F .text	00000010 _isatty
000030e6 g     F .text	00000036 Delay_Us
2000009c g     O .data	00000004 _global_impure_ptr
0000114e g     F .text	0000002c i2c_scan_address
0000014a g     F .text	00000016 .hidden __riscv_restore_5
00002c78 g     F .text	0000001e RCC_AHBPeriphClockCmd
0000329a g     F .text	00000392 .hidden __udivdi3
000026f6  w      .text	00000000 DMA1_Channel4_IRQHandler
00002864 g     F .text	000000b8 ADC_RegularChannelConfig
00003270 g     F .text	0000002a _sbrk
0000291c g     F .text	00000008 ADC_GetConversionValue
00004284 g     O .text	0000000e MyManuInfo
000016fa g     F .text	00000026 reads_pile
0000014a g     F .text	00000016 .hidden __riscv_restore_6
000026f6  w      .text	00000000 USART3_IRQHandler
000029fe g     F .text	0000000a EXTI_ClearITPendingBit
000026f6  w      .text	00000000 RTC_IRQHandler
00002844 g     F .text	00000008 ADC_GetCalibrationStatus
200000a1 g     O .bss	00000001 USBFS_DevConfig
20002958 g       .bss	00000000 _ebss
00002134 g     F .text	00000028 usbSerial_blocking_writeP
000026f6  w      .text	00000000 DMA1_Channel7_IRQHandler
00002d52 g     F .text	0000006a TIM_OC1Init
0000284c g     F .text	00000018 ADC_SoftwareStartConvCmd
00002fbe g     F .text	0000000e TIM_OC3PreloadConfig
00002832 g     F .text	00000008 ADC_GetResetCalibrationStatus
000026f6  w      .text	00000000 CAN1_RX1_IRQHandler
0000126e g     F .text	00000062 GPIO_Init_Small
000030c0 g     F .text	00000026 Delay_Init
200000c8 g     O .bss	00000004 pio_count
0000117a g     F .text	0000003e i2c_send_bytes
200000ae g     O .bss	00000002 USBFS_SetupReqIndex
000026f6  w      .text	00000000 TIM4_IRQHandler
00002f80 g     F .text	0000001a TIM_ARRPreloadConfig
00000108 g     F .text	00000028 .hidden __riscv_save_9
200000b2 g     O .bss	00000001 USBFS_SetupReqType
000043d0 g     O .text	00000020 __sf_fake_stderr
00000116 g     F .text	0000001a .hidden __riscv_save_4
000026f6  w      .text	00000000 I2C1_EV_IRQHandler
200000a4 g     O .bss	00000008 USBFS_Endp_Busy
00002bba g     F .text	000000be RCC_GetClocksFreq
000026f6  w      .text	00000000 DMA1_Channel6_IRQHandler
000026f6  w      .text	00000000 UART4_IRQHandler
00002ff2 g     F .text	000000a6 USART_Init
00003e1e g     F .text	000000a4 _free_r
000026f6  w      .text	00000000 TIM3_IRQHandler
000026f6  w      .text	00000000 RCC_IRQHandler
00000130 g     F .text	0000000c .hidden __riscv_save_3
000026f6  w      .text	00000000 TIM1_TRG_COM_IRQHandler
000003d6 g     F .text	00000048 neopixel_send_byte
000026f6  w      .text	00000000 DMA1_Channel1_IRQHandler
00000000 g       .init	00000000 _start
20000000 g     O .data	00000010 AHBPrescTable
000041d0 g     F .text	00000010 _lseek
0000181c g     F .text	000000ea USBFS_Endp_DataUp
00002fa8 g     F .text	00000016 TIM_OC2PreloadConfig
000022da g     F .text	00000022 EXTI15_10_IRQHandler
00002dbc g     F .text	00000096 TIM_OC2Init
00002976 g     F .text	0000006a EXTI_Init
200000ac g     O .bss	00000001 USBFS_SetupReqCode
20000164 g     O .bss	00000040 USBFS_EP2_Buf
000026f6  w      .text	00000000 DMA1_Channel8_IRQHandler
00001ff0 g     F .text	0000002e usbSerial_read
200000a2 g     O .bss	00000001 USBFS_DevEnumStatus
000040a2 g     F .text	00000030 _close_r
20000000 g       .dalign	00000000 _data_vma
00002ee6 g     F .text	0000006c TIM_OC4Init
200000d0 g     O .bss	00000001 MCU_Version
0000387a g     F .text	000000fc __swsetup_r
000022b8 g     F .text	00000022 EXTI9_5_IRQHandler
00003c2e g     F .text	000000a0 __sfp
00002afa g     F .text	0000002c GPIO_EXTILineConfig
200000a0 g     O .bss	00000001 USBFS_DevAddr
00000108 g     F .text	00000028 .hidden __riscv_save_10
00003fc2 g     F .text	0000002c __sread
00004168 g     F .text	00000002 __malloc_lock
0000014a g     F .text	00000016 .hidden __riscv_restore_4
00000140 g     F .text	00000020 .hidden __riscv_restore_8
00003aa6 g     F .text	00000066 _fflush_r
00000116 g     F .text	0000001a .hidden __riscv_save_6
000029e0 g     F .text	0000001e EXTI_GetITStatus
000026f6  w      .text	00000000 SPI2_IRQHandler
000043f0 g     O .text	00000020 __sf_fake_stdin
00000160 g     F .text	000000a8 memset
0000041e g     F .text	0000011e spi_xfer_byte_bb_ch32
00000140 g     F .text	00000020 .hidden __riscv_restore_9
0000014a g     F .text	00000016 .hidden __riscv_restore_7
000024b4 g     F .text	000000ca main
00004066 g     F .text	00000006 __sclose
00003ec2 g     F .text	000000ce _malloc_r
200000cc g     O .bss	00000004 pio_head
200000a3 g     O .bss	00000001 USBFS_DevSleepStatus
000026f6  w      .text	00000000 DMA1_Channel5_IRQHandler
00002fe2 g     F .text	00000004 TIM_SetCounter
00002b8e g     F .text	0000001a RCC_USBCLKConfig
000022b0 g     F .text	00000008 EXTI4_IRQHandler
0000311c g     F .text	00000036 Delay_Ms
000017c6 g     F .text	00000056 USBFS_Device_Init
000026f6  w      .text	00000000 USB_LP_CAN1_RX0_IRQHandler
00004294 g     O .text	00000016 MyProdInfo
200011e4 g     O .bss	00001770 pio_buffer
0000295e g     F .text	00000018 ADC_BufferCmd
000002c8 g     F .text	00000026 EXTI_DEINIT
0000175a g     F .text	0000006c USBFS_Device_Endp_Init
0000257e g     F .text	000000ea SystemInit
000026f6  w      .text	00000000 USB_HP_CAN1_TX_IRQHandler
000042d0 g     O .text	00000100 .hidden __clz_tab
000021e6 g     F .text	0000002a TIM4_pulseio_start
00000000 g       .init	00000000 _sinit
000012d0 g     F .text	000003d2 run
0000406c g     F .text	00000036 _write_r
000026f6  w      .text	00000000 DMA1_Channel3_IRQHandler
000021de g     F .text	00000008 usbSerial_on_ep3_in_done
20000094 g     O .data	00000004 _impure_ptr
000026f6  w      .text	00000000 TIM1_UP_IRQHandler
00003976 g     F .text	00000130 __sflush_r
000026f6  w      .text	00000000 WWDG_IRQHandler
00002956 g     F .text	00000008 ADC_ClearFlag
000020d2 g     F .text	00000026 usbSerial_tx_pending
000026f6  w      .text	00000000 Ecall_U_Mode_Handler
000026f6  w      .text	00000000 TIM2_IRQHandler
20005000 g       .stack	00000000 _eusrstack
00000130 g     F .text	0000000c .hidden __riscv_save_2
000026f6  w      .text	00000000 SW_Handler
00002782 g     F .text	00000040 ADC_DeInit
000026f6  w      .text	00000000 TIM1_BRK_IRQHandler
00002938 g     F .text	00000014 ADC_ExternalTrigInjectedConvCmd
00003d38 g     F .text	00000056 __swhatbuf_r
000027c2 g     F .text	00000056 ADC_Init
00000216 g     F .text	00000046 ADC1_ReadChannel
000030ae g     F .text	00000008 USART_SendData
00002298 g     F .text	00000008 EXTI1_IRQHandler
00001f20 g     F .text	0000001a usbSerial_connected
00000116 g     F .text	0000001a .hidden __riscv_save_5
000023ae g     F .text	00000076 TIM4_pulseio_init
00003232 g     F .text	0000003e _write
200000e4 g     O .bss	00000040 USBFS_EP0_Buf
200000a0 g       .data	00000000 _edata
200000b8 g     O .bss	00000004 pUSBFS_Descr
20002958 g       .bss	00000000 _end
000003a6 g     F .text	00000022 neopixel_send_1
000016ce g     F .text	0000002c writes_registers
0000201e g     F .text	0000000e usbSerial_blocking_read_u8
00002cf0 g     F .text	00000062 TIM_TimeBaseInit
000026f6  w      .text	00000000 RTCAlarm_IRQHandler
00004430 g       .dlalign	00000000 _data_lma
00002170 g     F .text	0000006e usbSerial_on_ep2_out
000026f6  w      .text	00000000 USART2_IRQHandler
00003fee g     F .text	00000048 __swrite
00003cce g     F .text	0000006a _fwalk_reent
00002668 g     F .text	0000008e SystemCoreClockUpdate
00003152 g     F .text	0000002e Delay_Ticks
000026f6  w      .text	00000000 I2C2_ER_IRQHandler
000026f6  w      .text	00000000 DMA1_Channel2_IRQHandler
00002210 g     F .text	0000001e TIM4_pulseio_stop
00004410 g     O .text	00000020 __sf_fake_stdout
0000013c g     F .text	00000024 .hidden __riscv_restore_12
000041e0 g     F .text	00000010 _read
000026f8  w      .text	00000000 handle_reset
000026f6  w      .text	00000000 CAN1_SCE_IRQHandler
000026f6  w      .text	00000000 FLASH_IRQHandler
00000130 g     F .text	0000000c .hidden __riscv_save_0
000026f6  w      .text	00000000 USBFSWakeUp_IRQHandler
000026f6  w      .text	00000000 USART1_IRQHandler
00003d8e g     F .text	00000090 __smakebuf_r
00001720 g     F .text	00000024 writes_pile
200000e0 g     O .bss	00000004 __malloc_sbrk_start
00002cd2 g     F .text	0000001e RCC_APB2PeriphResetCmd
000026f6  w      .text	00000000 I2C1_ER_IRQHandler
200001a4 g     O .bss	00000040 USBFS_EP3_Buf
00002b26 g     F .text	00000006 NVIC_PriorityGroupConfig
000031bc g     F .text	0000000a has_timer_timeout
200000dc g     O .bss	00000004 __malloc_free_list
000031aa g     F .text	00000012 start_timer_us_u8
00000154 g     F .text	0000000c .hidden __riscv_restore_1
0000025c g     F .text	0000006c EXTI_INIT
000026f6  w      .text	00000000 USBWakeUp_IRQHandler
00002424 g     F .text	00000090 ADC1_Init_Single
000041a0 g     F .text	00000010 _close



Disassembly of section .init:

00000000 <_sinit>:
   0:	6f80206f          	j	26f8 <handle_reset>

Disassembly of section .vector:

00000004 <_vector_base>:
	...
   c:	222e                	lhu	a1,2(a2)
   e:	0000                	unimp
  10:	2230                	lbu	a2,2(a2)
  12:	0000                	unimp
  14:	0000                	unimp
  16:	0000                	unimp
  18:	26f6                	lhu	a3,14(a3)
	...
  22:	0000                	unimp
  24:	26f6                	lhu	a3,14(a3)
  26:	0000                	unimp
  28:	26f6                	lhu	a3,14(a3)
	...
  32:	0000                	unimp
  34:	26f6                	lhu	a3,14(a3)
  36:	0000                	unimp
  38:	0000                	unimp
  3a:	0000                	unimp
  3c:	26f6                	lhu	a3,14(a3)
  3e:	0000                	unimp
  40:	0000                	unimp
  42:	0000                	unimp
  44:	26f6                	lhu	a3,14(a3)
  46:	0000                	unimp
  48:	26f6                	lhu	a3,14(a3)
  4a:	0000                	unimp
  4c:	26f6                	lhu	a3,14(a3)
  4e:	0000                	unimp
  50:	26f6                	lhu	a3,14(a3)
  52:	0000                	unimp
  54:	26f6                	lhu	a3,14(a3)
  56:	0000                	unimp
  58:	26f6                	lhu	a3,14(a3)
  5a:	0000                	unimp
  5c:	2290                	lbu	a2,0(a3)
  5e:	0000                	unimp
  60:	2298                	lbu	a4,0(a3)
  62:	0000                	unimp
  64:	22a0                	lbu	s0,2(a3)
  66:	0000                	unimp
  68:	22a8                	lbu	a0,2(a3)
  6a:	0000                	unimp
  6c:	22b0                	lbu	a2,2(a3)
  6e:	0000                	unimp
  70:	26f6                	lhu	a3,14(a3)
  72:	0000                	unimp
  74:	26f6                	lhu	a3,14(a3)
  76:	0000                	unimp
  78:	26f6                	lhu	a3,14(a3)
  7a:	0000                	unimp
  7c:	26f6                	lhu	a3,14(a3)
  7e:	0000                	unimp
  80:	26f6                	lhu	a3,14(a3)
  82:	0000                	unimp
  84:	26f6                	lhu	a3,14(a3)
  86:	0000                	unimp
  88:	26f6                	lhu	a3,14(a3)
  8a:	0000                	unimp
  8c:	26f6                	lhu	a3,14(a3)
  8e:	0000                	unimp
  90:	26f6                	lhu	a3,14(a3)
  92:	0000                	unimp
  94:	26f6                	lhu	a3,14(a3)
  96:	0000                	unimp
  98:	26f6                	lhu	a3,14(a3)
  9a:	0000                	unimp
  9c:	26f6                	lhu	a3,14(a3)
  9e:	0000                	unimp
  a0:	22b8                	lbu	a4,2(a3)
  a2:	0000                	unimp
  a4:	26f6                	lhu	a3,14(a3)
  a6:	0000                	unimp
  a8:	26f6                	lhu	a3,14(a3)
  aa:	0000                	unimp
  ac:	26f6                	lhu	a3,14(a3)
  ae:	0000                	unimp
  b0:	26f6                	lhu	a3,14(a3)
  b2:	0000                	unimp
  b4:	26f6                	lhu	a3,14(a3)
  b6:	0000                	unimp
  b8:	26f6                	lhu	a3,14(a3)
  ba:	0000                	unimp
  bc:	26f6                	lhu	a3,14(a3)
  be:	0000                	unimp
  c0:	26f6                	lhu	a3,14(a3)
  c2:	0000                	unimp
  c4:	26f6                	lhu	a3,14(a3)
  c6:	0000                	unimp
  c8:	26f6                	lhu	a3,14(a3)
  ca:	0000                	unimp
  cc:	26f6                	lhu	a3,14(a3)
  ce:	0000                	unimp
  d0:	26f6                	lhu	a3,14(a3)
  d2:	0000                	unimp
  d4:	26f6                	lhu	a3,14(a3)
  d6:	0000                	unimp
  d8:	26f6                	lhu	a3,14(a3)
  da:	0000                	unimp
  dc:	26f6                	lhu	a3,14(a3)
  de:	0000                	unimp
  e0:	26f6                	lhu	a3,14(a3)
  e2:	0000                	unimp
  e4:	22da                	lhu	a4,4(a3)
  e6:	0000                	unimp
  e8:	26f6                	lhu	a3,14(a3)
  ea:	0000                	unimp
  ec:	26f6                	lhu	a3,14(a3)
  ee:	0000                	unimp
  f0:	1906                	slli	s2,s2,0x21
  f2:	0000                	unimp
  f4:	26f6                	lhu	a3,14(a3)
  f6:	0000                	unimp
  f8:	26f6                	lhu	a3,14(a3)
  fa:	0000                	unimp
  fc:	26f6                	lhu	a3,14(a3)
	...

Disassembly of section .text:

00000100 <__riscv_save_12>:
     100:	7139                	addi	sp,sp,-64
     102:	4301                	li	t1,0
     104:	c66e                	sw	s11,12(sp)
     106:	a019                	j	10c <__riscv_save_10+0x4>

00000108 <__riscv_save_10>:
     108:	7139                	addi	sp,sp,-64
     10a:	5341                	li	t1,-16
     10c:	c86a                	sw	s10,16(sp)
     10e:	ca66                	sw	s9,20(sp)
     110:	cc62                	sw	s8,24(sp)
     112:	ce5e                	sw	s7,28(sp)
     114:	a019                	j	11a <__riscv_save_4+0x4>

00000116 <__riscv_save_4>:
     116:	7139                	addi	sp,sp,-64
     118:	5301                	li	t1,-32
     11a:	d05a                	sw	s6,32(sp)
     11c:	d256                	sw	s5,36(sp)
     11e:	d452                	sw	s4,40(sp)
     120:	d64e                	sw	s3,44(sp)
     122:	d84a                	sw	s2,48(sp)
     124:	da26                	sw	s1,52(sp)
     126:	dc22                	sw	s0,56(sp)
     128:	de06                	sw	ra,60(sp)
     12a:	40610133          	sub	sp,sp,t1
     12e:	8282                	jr	t0

00000130 <__riscv_save_0>:
     130:	1141                	addi	sp,sp,-16
     132:	c04a                	sw	s2,0(sp)
     134:	c226                	sw	s1,4(sp)
     136:	c422                	sw	s0,8(sp)
     138:	c606                	sw	ra,12(sp)
     13a:	8282                	jr	t0

0000013c <__riscv_restore_12>:
     13c:	4db2                	lw	s11,12(sp)
     13e:	0141                	addi	sp,sp,16

00000140 <__riscv_restore_10>:
     140:	4d02                	lw	s10,0(sp)
     142:	4c92                	lw	s9,4(sp)
     144:	4c22                	lw	s8,8(sp)
     146:	4bb2                	lw	s7,12(sp)
     148:	0141                	addi	sp,sp,16

0000014a <__riscv_restore_4>:
     14a:	4b02                	lw	s6,0(sp)
     14c:	4a92                	lw	s5,4(sp)
     14e:	4a22                	lw	s4,8(sp)
     150:	49b2                	lw	s3,12(sp)
     152:	0141                	addi	sp,sp,16

00000154 <__riscv_restore_0>:
     154:	4902                	lw	s2,0(sp)
     156:	4492                	lw	s1,4(sp)
     158:	4422                	lw	s0,8(sp)
     15a:	40b2                	lw	ra,12(sp)
     15c:	0141                	addi	sp,sp,16
     15e:	8082                	ret

00000160 <memset>:
     160:	433d                	li	t1,15
     162:	872a                	mv	a4,a0
     164:	02c37363          	bgeu	t1,a2,18a <memset+0x2a>
     168:	00f77793          	andi	a5,a4,15
     16c:	efbd                	bnez	a5,1ea <memset+0x8a>
     16e:	e5ad                	bnez	a1,1d8 <memset+0x78>
     170:	ff067693          	andi	a3,a2,-16
     174:	8a3d                	andi	a2,a2,15
     176:	96ba                	add	a3,a3,a4
     178:	c30c                	sw	a1,0(a4)
     17a:	c34c                	sw	a1,4(a4)
     17c:	c70c                	sw	a1,8(a4)
     17e:	c74c                	sw	a1,12(a4)
     180:	0741                	addi	a4,a4,16
     182:	fed76be3          	bltu	a4,a3,178 <memset+0x18>
     186:	e211                	bnez	a2,18a <memset+0x2a>
     188:	8082                	ret
     18a:	40c306b3          	sub	a3,t1,a2
     18e:	068a                	slli	a3,a3,0x2
     190:	00000297          	auipc	t0,0x0
     194:	9696                	add	a3,a3,t0
     196:	00a68067          	jr	10(a3)
     19a:	00b70723          	sb	a1,14(a4)
     19e:	00b706a3          	sb	a1,13(a4)
     1a2:	00b70623          	sb	a1,12(a4)
     1a6:	00b705a3          	sb	a1,11(a4)
     1aa:	00b70523          	sb	a1,10(a4)
     1ae:	00b704a3          	sb	a1,9(a4)
     1b2:	00b70423          	sb	a1,8(a4)
     1b6:	00b703a3          	sb	a1,7(a4)
     1ba:	00b70323          	sb	a1,6(a4)
     1be:	00b702a3          	sb	a1,5(a4)
     1c2:	00b70223          	sb	a1,4(a4)
     1c6:	00b701a3          	sb	a1,3(a4)
     1ca:	00b70123          	sb	a1,2(a4)
     1ce:	00b700a3          	sb	a1,1(a4)
     1d2:	00b70023          	sb	a1,0(a4)
     1d6:	8082                	ret
     1d8:	0ff5f593          	andi	a1,a1,255
     1dc:	00859693          	slli	a3,a1,0x8
     1e0:	8dd5                	or	a1,a1,a3
     1e2:	01059693          	slli	a3,a1,0x10
     1e6:	8dd5                	or	a1,a1,a3
     1e8:	b761                	j	170 <memset+0x10>
     1ea:	00279693          	slli	a3,a5,0x2
     1ee:	00000297          	auipc	t0,0x0
     1f2:	9696                	add	a3,a3,t0
     1f4:	8286                	mv	t0,ra
     1f6:	fa8680e7          	jalr	-88(a3)
     1fa:	8096                	mv	ra,t0
     1fc:	17c1                	addi	a5,a5,-16
     1fe:	8f1d                	sub	a4,a4,a5
     200:	963e                	add	a2,a2,a5
     202:	f8c374e3          	bgeu	t1,a2,18a <memset+0x2a>
     206:	b7a5                	j	16e <memset+0xe>

00000208 <spi_delay_nops>:
     208:	57fd                	li	a5,-1
     20a:	157d                	addi	a0,a0,-1
     20c:	00f51363          	bne	a0,a5,212 <spi_delay_nops+0xa>
     210:	8082                	ret
     212:	0001                	nop
     214:	bfdd                	j	20a <spi_delay_nops+0x2>

00000216 <ADC1_ReadChannel>:
     216:	f1bff2ef          	jal	t0,130 <__riscv_save_0>
     21a:	40012437          	lui	s0,0x40012
     21e:	85aa                	mv	a1,a0
     220:	4695                	li	a3,5
     222:	4605                	li	a2,1
     224:	40040513          	addi	a0,s0,1024 # 40012400 <_eusrstack+0x2000d400>
     228:	63c020ef          	jal	ra,2864 <ADC_RegularChannelConfig>
     22c:	4585                	li	a1,1
     22e:	40040513          	addi	a0,s0,1024
     232:	61a020ef          	jal	ra,284c <ADC_SoftwareStartConvCmd>
     236:	40040493          	addi	s1,s0,1024
     23a:	4589                	li	a1,2
     23c:	8526                	mv	a0,s1
     23e:	70e020ef          	jal	ra,294c <ADC_GetFlagStatus>
     242:	dd65                	beqz	a0,23a <ADC1_ReadChannel+0x24>
     244:	40040513          	addi	a0,s0,1024
     248:	6d4020ef          	jal	ra,291c <ADC_GetConversionValue>
     24c:	84aa                	mv	s1,a0
     24e:	4589                	li	a1,2
     250:	40040513          	addi	a0,s0,1024
     254:	702020ef          	jal	ra,2956 <ADC_ClearFlag>
     258:	8526                	mv	a0,s1
     25a:	bded                	j	154 <__riscv_restore_0>

0000025c <EXTI_INIT>:
     25c:	ed5ff2ef          	jal	t0,130 <__riscv_save_0>
     260:	1101                	addi	sp,sp,-32
     262:	0ff57593          	andi	a1,a0,255
     266:	842a                	mv	s0,a0
     268:	4501                	li	a0,0
     26a:	c802                	sw	zero,16(sp)
     26c:	ca02                	sw	zero,20(sp)
     26e:	cc02                	sw	zero,24(sp)
     270:	ce02                	sw	zero,28(sp)
     272:	c402                	sw	zero,8(sp)
     274:	c602                	sw	zero,12(sp)
     276:	085020ef          	jal	ra,2afa <GPIO_EXTILineConfig>
     27a:	4785                	li	a5,1
     27c:	008794b3          	sll	s1,a5,s0
     280:	4741                	li	a4,16
     282:	0808                	addi	a0,sp,16
     284:	ce3e                	sw	a5,28(sp)
     286:	cc3a                	sw	a4,24(sp)
     288:	c826                	sw	s1,16(sp)
     28a:	ca02                	sw	zero,20(sp)
     28c:	6ea020ef          	jal	ra,2976 <EXTI_Init>
     290:	8526                	mv	a0,s1
     292:	76c020ef          	jal	ra,29fe <EXTI_ClearITPendingBit>
     296:	4791                	li	a5,4
     298:	0287e063          	bltu	a5,s0,2b8 <EXTI_INIT+0x5c>
     29c:	01640793          	addi	a5,s0,22
     2a0:	845c                	sb	a5,8(sp)
     2a2:	4785                	li	a5,1
     2a4:	84dc                	sb	a5,9(sp)
     2a6:	4789                	li	a5,2
     2a8:	855c                	sb	a5,10(sp)
     2aa:	0028                	addi	a0,sp,8
     2ac:	4785                	li	a5,1
     2ae:	c63e                	sw	a5,12(sp)
     2b0:	07d020ef          	jal	ra,2b2c <NVIC_Init>
     2b4:	6105                	addi	sp,sp,32
     2b6:	bd79                	j	154 <__riscv_restore_0>
     2b8:	4725                	li	a4,9
     2ba:	02700793          	li	a5,39
     2be:	fe8771e3          	bgeu	a4,s0,2a0 <EXTI_INIT+0x44>
     2c2:	03800793          	li	a5,56
     2c6:	bfe9                	j	2a0 <EXTI_INIT+0x44>

000002c8 <EXTI_DEINIT>:
     2c8:	e69ff2ef          	jal	t0,130 <__riscv_save_0>
     2cc:	1141                	addi	sp,sp,-16
     2ce:	4405                	li	s0,1
     2d0:	00a41433          	sll	s0,s0,a0
     2d4:	47c1                	li	a5,16
     2d6:	850a                	mv	a0,sp
     2d8:	c43e                	sw	a5,8(sp)
     2da:	c022                	sw	s0,0(sp)
     2dc:	c202                	sw	zero,4(sp)
     2de:	c602                	sw	zero,12(sp)
     2e0:	696020ef          	jal	ra,2976 <EXTI_Init>
     2e4:	8522                	mv	a0,s0
     2e6:	718020ef          	jal	ra,29fe <EXTI_ClearITPendingBit>
     2ea:	0141                	addi	sp,sp,16
     2ec:	b5a5                	j	154 <__riscv_restore_0>

000002ee <set_duty>:
     2ee:	e509                	bnez	a0,2f8 <set_duty+0xa>
     2f0:	400007b7          	lui	a5,0x40000
     2f4:	bbce                	sh	a1,52(a5)
     2f6:	8082                	ret
     2f8:	4785                	li	a5,1
     2fa:	00f51663          	bne	a0,a5,306 <set_duty+0x18>
     2fe:	400007b7          	lui	a5,0x40000
     302:	bf8e                	sh	a1,56(a5)
     304:	8082                	ret
     306:	4789                	li	a5,2
     308:	00f51663          	bne	a0,a5,314 <set_duty+0x26>
     30c:	400007b7          	lui	a5,0x40000
     310:	bfce                	sh	a1,60(a5)
     312:	8082                	ret
     314:	478d                	li	a5,3
     316:	00f51763          	bne	a0,a5,324 <set_duty+0x36>
     31a:	400007b7          	lui	a5,0x40000
     31e:	04b79023          	sh	a1,64(a5) # 40000040 <_eusrstack+0x1fffb040>
     322:	8082                	ret
     324:	4799                	li	a5,6
     326:	00f51763          	bne	a0,a5,334 <set_duty+0x46>
     32a:	400007b7          	lui	a5,0x40000
     32e:	42b79a23          	sh	a1,1076(a5) # 40000434 <_eusrstack+0x1fffb434>
     332:	8082                	ret
     334:	479d                	li	a5,7
     336:	00f51763          	bne	a0,a5,344 <set_duty+0x56>
     33a:	400007b7          	lui	a5,0x40000
     33e:	42b79c23          	sh	a1,1080(a5) # 40000438 <_eusrstack+0x1fffb438>
     342:	8082                	ret
     344:	47a1                	li	a5,8
     346:	00f51763          	bne	a0,a5,354 <set_duty+0x66>
     34a:	400137b7          	lui	a5,0x40013
     34e:	c2b79a23          	sh	a1,-972(a5) # 40012c34 <_eusrstack+0x2000dc34>
     352:	8082                	ret
     354:	47a5                	li	a5,9
     356:	00f51763          	bne	a0,a5,364 <set_duty+0x76>
     35a:	400137b7          	lui	a5,0x40013
     35e:	c2b79c23          	sh	a1,-968(a5) # 40012c38 <_eusrstack+0x2000dc38>
     362:	8082                	ret
     364:	47a9                	li	a5,10
     366:	00f51763          	bne	a0,a5,374 <set_duty+0x86>
     36a:	400137b7          	lui	a5,0x40013
     36e:	c2b79e23          	sh	a1,-964(a5) # 40012c3c <_eusrstack+0x2000dc3c>
     372:	8082                	ret
     374:	47ad                	li	a5,11
     376:	00f51663          	bne	a0,a5,382 <set_duty+0x94>
     37a:	400137b7          	lui	a5,0x40013
     37e:	c4b79023          	sh	a1,-960(a5) # 40012c40 <_eusrstack+0x2000dc40>
     382:	8082                	ret

00000384 <neopixel_send_0>:
     384:	400117b7          	lui	a5,0x40011
     388:	80a7a823          	sw	a0,-2032(a5) # 40010810 <_eusrstack+0x2000b810>
     38c:	47ad                	li	a5,11
     38e:	0001                	nop
     390:	17fd                	addi	a5,a5,-1
     392:	fff5                	bnez	a5,38e <neopixel_send_0+0xa>
     394:	400117b7          	lui	a5,0x40011
     398:	80a7aa23          	sw	a0,-2028(a5) # 40010814 <_eusrstack+0x2000b814>
     39c:	47fd                	li	a5,31
     39e:	0001                	nop
     3a0:	17fd                	addi	a5,a5,-1
     3a2:	fff5                	bnez	a5,39e <neopixel_send_0+0x1a>
     3a4:	8082                	ret

000003a6 <neopixel_send_1>:
     3a6:	400117b7          	lui	a5,0x40011
     3aa:	80a7a823          	sw	a0,-2032(a5) # 40010810 <_eusrstack+0x2000b810>
     3ae:	47e1                	li	a5,24
     3b0:	0001                	nop
     3b2:	17fd                	addi	a5,a5,-1
     3b4:	fff5                	bnez	a5,3b0 <neopixel_send_1+0xa>
     3b6:	400117b7          	lui	a5,0x40011
     3ba:	80a7aa23          	sw	a0,-2028(a5) # 40010814 <_eusrstack+0x2000b814>
     3be:	47c9                	li	a5,18
     3c0:	0001                	nop
     3c2:	17fd                	addi	a5,a5,-1
     3c4:	fff5                	bnez	a5,3c0 <neopixel_send_1+0x1a>
     3c6:	8082                	ret

000003c8 <neopixel_send_bit>:
     3c8:	d69ff2ef          	jal	t0,130 <__riscv_save_0>
     3cc:	c199                	beqz	a1,3d2 <neopixel_send_bit+0xa>
     3ce:	3fe1                	jal	3a6 <neopixel_send_1>
     3d0:	b351                	j	154 <__riscv_restore_0>
     3d2:	3f4d                	jal	384 <neopixel_send_0>
     3d4:	bff5                	j	3d0 <neopixel_send_bit+0x8>

000003d6 <neopixel_send_byte>:
     3d6:	d5bff2ef          	jal	t0,130 <__riscv_save_0>
     3da:	842e                	mv	s0,a1
     3dc:	0805f593          	andi	a1,a1,128
     3e0:	84aa                	mv	s1,a0
     3e2:	37dd                	jal	3c8 <neopixel_send_bit>
     3e4:	04047593          	andi	a1,s0,64
     3e8:	8526                	mv	a0,s1
     3ea:	3ff9                	jal	3c8 <neopixel_send_bit>
     3ec:	02047593          	andi	a1,s0,32
     3f0:	8526                	mv	a0,s1
     3f2:	3fd9                	jal	3c8 <neopixel_send_bit>
     3f4:	01047593          	andi	a1,s0,16
     3f8:	8526                	mv	a0,s1
     3fa:	37f9                	jal	3c8 <neopixel_send_bit>
     3fc:	00847593          	andi	a1,s0,8
     400:	8526                	mv	a0,s1
     402:	37d9                	jal	3c8 <neopixel_send_bit>
     404:	00447593          	andi	a1,s0,4
     408:	8526                	mv	a0,s1
     40a:	3f7d                	jal	3c8 <neopixel_send_bit>
     40c:	00247593          	andi	a1,s0,2
     410:	8526                	mv	a0,s1
     412:	3f5d                	jal	3c8 <neopixel_send_bit>
     414:	00147593          	andi	a1,s0,1
     418:	8526                	mv	a0,s1
     41a:	377d                	jal	3c8 <neopixel_send_bit>
     41c:	bb25                	j	154 <__riscv_restore_0>

0000041e <spi_xfer_byte_bb_ch32>:
     41e:	cebff2ef          	jal	t0,108 <__riscv_save_10>
     422:	4405                	li	s0,1
     424:	00b419b3          	sll	s3,s0,a1
     428:	00c41bb3          	sll	s7,s0,a2
     42c:	00a41433          	sll	s0,s0,a0
     430:	8a3e                	mv	s4,a5
     432:	00177493          	andi	s1,a4,1
     436:	0442                	slli	s0,s0,0x10
     438:	400117b7          	lui	a5,0x40011
     43c:	8305                	srli	a4,a4,0x1
     43e:	8936                	mv	s2,a3
     440:	8041                	srli	s0,s0,0x10
     442:	80078793          	addi	a5,a5,-2048 # 40010800 <_eusrstack+0x2000b800>
     446:	cb25                	beqz	a4,4b6 <spi_xfer_byte_bb_ch32+0x98>
     448:	cb80                	sw	s0,16(a5)
     44a:	4a85                	li	s5,1
     44c:	8552                	mv	a0,s4
     44e:	3b6d                	jal	208 <spi_delay_nops>
     450:	4ca1                	li	s9,8
     452:	eca5                	bnez	s1,4ca <spi_xfer_byte_bb_ch32+0xac>
     454:	6b41                	lui	s6,0x10
     456:	1b7d                	addi	s6,s6,-1
     458:	0169f9b3          	and	s3,s3,s6
     45c:	40011d37          	lui	s10,0x40011
     460:	4c05                	li	s8,1
     462:	00795793          	srli	a5,s2,0x7
     466:	800d0713          	addi	a4,s10,-2048 # 40010800 <_eusrstack+0x2000b800>
     46a:	cba9                	beqz	a5,4bc <spi_xfer_byte_bb_ch32+0x9e>
     46c:	01372823          	sw	s3,16(a4)
     470:	0906                	slli	s2,s2,0x1
     472:	0ff97913          	andi	s2,s2,255
     476:	800d0793          	addi	a5,s10,-2048
     47a:	058a8463          	beq	s5,s8,4c2 <spi_xfer_byte_bb_ch32+0xa4>
     47e:	cb80                	sw	s0,16(a5)
     480:	8552                	mv	a0,s4
     482:	3359                	jal	208 <spi_delay_nops>
     484:	800d0713          	addi	a4,s10,-2048
     488:	471c                	lw	a5,8(a4)
     48a:	0486                	slli	s1,s1,0x1
     48c:	00fbf7b3          	and	a5,s7,a5
     490:	0167f7b3          	and	a5,a5,s6
     494:	00f037b3          	snez	a5,a5
     498:	8cdd                	or	s1,s1,a5
     49a:	0ff4f493          	andi	s1,s1,255
     49e:	020a8463          	beqz	s5,4c6 <spi_xfer_byte_bb_ch32+0xa8>
     4a2:	cb00                	sw	s0,16(a4)
     4a4:	1cfd                	addi	s9,s9,-1
     4a6:	8552                	mv	a0,s4
     4a8:	0ffcfc93          	andi	s9,s9,255
     4ac:	3bb1                	jal	208 <spi_delay_nops>
     4ae:	fa0c9ae3          	bnez	s9,462 <spi_xfer_byte_bb_ch32+0x44>
     4b2:	8526                	mv	a0,s1
     4b4:	b171                	j	140 <__riscv_restore_10>
     4b6:	cbc0                	sw	s0,20(a5)
     4b8:	4a81                	li	s5,0
     4ba:	bf49                	j	44c <spi_xfer_byte_bb_ch32+0x2e>
     4bc:	01372a23          	sw	s3,20(a4)
     4c0:	bf45                	j	470 <spi_xfer_byte_bb_ch32+0x52>
     4c2:	cbc0                	sw	s0,20(a5)
     4c4:	bf75                	j	480 <spi_xfer_byte_bb_ch32+0x62>
     4c6:	cb40                	sw	s0,20(a4)
     4c8:	bff1                	j	4a4 <spi_xfer_byte_bb_ch32+0x86>
     4ca:	6b41                	lui	s6,0x10
     4cc:	1b7d                	addi	s6,s6,-1
     4ce:	4481                	li	s1,0
     4d0:	4c05                	li	s8,1
     4d2:	40011d37          	lui	s10,0x40011
     4d6:	0169f9b3          	and	s3,s3,s6
     4da:	800d0793          	addi	a5,s10,-2048 # 40010800 <_eusrstack+0x2000b800>
     4de:	058a8863          	beq	s5,s8,52e <spi_xfer_byte_bb_ch32+0x110>
     4e2:	cb80                	sw	s0,16(a5)
     4e4:	8552                	mv	a0,s4
     4e6:	330d                	jal	208 <spi_delay_nops>
     4e8:	00795793          	srli	a5,s2,0x7
     4ec:	800d0713          	addi	a4,s10,-2048
     4f0:	c3a9                	beqz	a5,532 <spi_xfer_byte_bb_ch32+0x114>
     4f2:	01372823          	sw	s3,16(a4)
     4f6:	0906                	slli	s2,s2,0x1
     4f8:	0ff97913          	andi	s2,s2,255
     4fc:	800d0793          	addi	a5,s10,-2048
     500:	020a8c63          	beqz	s5,538 <spi_xfer_byte_bb_ch32+0x11a>
     504:	cb80                	sw	s0,16(a5)
     506:	8552                	mv	a0,s4
     508:	3301                	jal	208 <spi_delay_nops>
     50a:	808d2783          	lw	a5,-2040(s10)
     50e:	0486                	slli	s1,s1,0x1
     510:	1cfd                	addi	s9,s9,-1
     512:	00fbf7b3          	and	a5,s7,a5
     516:	0167f7b3          	and	a5,a5,s6
     51a:	00f037b3          	snez	a5,a5
     51e:	8cdd                	or	s1,s1,a5
     520:	0ffcfc93          	andi	s9,s9,255
     524:	0ff4f493          	andi	s1,s1,255
     528:	fa0c99e3          	bnez	s9,4da <spi_xfer_byte_bb_ch32+0xbc>
     52c:	b759                	j	4b2 <spi_xfer_byte_bb_ch32+0x94>
     52e:	cbc0                	sw	s0,20(a5)
     530:	bf55                	j	4e4 <spi_xfer_byte_bb_ch32+0xc6>
     532:	01372a23          	sw	s3,20(a4)
     536:	b7c1                	j	4f6 <spi_xfer_byte_bb_ch32+0xd8>
     538:	cbc0                	sw	s0,20(a5)
     53a:	b7f1                	j	506 <spi_xfer_byte_bb_ch32+0xe8>

0000053c <get_packet>:
     53c:	bcdff2ef          	jal	t0,108 <__riscv_save_10>
     540:	7379                	lui	t1,0xffffe
     542:	ac030313          	addi	t1,t1,-1344 # ffffdac0 <_eusrstack+0xdfff8ac0>
     546:	911a                	add	sp,sp,t1
     548:	2d7010ef          	jal	ra,201e <usbSerial_blocking_read_u8>
     54c:	08e00793          	li	a5,142
     550:	68f50163          	beq	a0,a5,bd2 <__stack_size+0x3d2>
     554:	10a7e063          	bltu	a5,a0,654 <get_packet+0x118>
     558:	47f9                	li	a5,30
     55a:	34f50f63          	beq	a0,a5,8b8 <__stack_size+0xb8>
     55e:	04a7e763          	bltu	a5,a0,5ac <get_packet+0x70>
     562:	47d1                	li	a5,20
     564:	32f50563          	beq	a0,a5,88e <__stack_size+0x8e>
     568:	02a7e263          	bltu	a5,a0,58c <get_packet+0x50>
     56c:	4785                	li	a5,1
     56e:	2cf50f63          	beq	a0,a5,84c <__stack_size+0x4c>
     572:	01851793          	slli	a5,a0,0x18
     576:	87e1                	srai	a5,a5,0x18
     578:	2c078663          	beqz	a5,844 <__stack_size+0x44>
     57c:	4789                	li	a5,2
     57e:	38f50c63          	beq	a0,a5,916 <__stack_size+0x116>
     582:	6309                	lui	t1,0x2
     584:	911a                	add	sp,sp,t1
     586:	54010113          	addi	sp,sp,1344
     58a:	be5d                	j	140 <__riscv_restore_10>
     58c:	47d9                	li	a5,22
     58e:	30f50c63          	beq	a0,a5,8a6 <__stack_size+0xa6>
     592:	30f56663          	bltu	a0,a5,89e <__stack_size+0x9e>
     596:	47dd                	li	a5,23
     598:	30f50b63          	beq	a0,a5,8ae <__stack_size+0xae>
     59c:	47e1                	li	a5,24
     59e:	fef512e3          	bne	a0,a5,582 <get_packet+0x46>
     5a2:	27d010ef          	jal	ra,201e <usbSerial_blocking_read_u8>
     5a6:	02800593          	li	a1,40
     5aa:	a4ed                	j	894 <__stack_size+0x94>
     5ac:	07800793          	li	a5,120
     5b0:	56f50663          	beq	a0,a5,b1c <__stack_size+0x31c>
     5b4:	02a7e063          	bltu	a5,a0,5d4 <get_packet+0x98>
     5b8:	02000793          	li	a5,32
     5bc:	32f50263          	beq	a0,a5,8e0 <__stack_size+0xe0>
     5c0:	30f56663          	bltu	a0,a5,8cc <__stack_size+0xcc>
     5c4:	07700793          	li	a5,119
     5c8:	faf51de3          	bne	a0,a5,582 <get_packet+0x46>
     5cc:	253010ef          	jal	ra,201e <usbSerial_blocking_read_u8>
     5d0:	45e1                	li	a1,24
     5d2:	a4c9                	j	894 <__stack_size+0x94>
     5d4:	07a00793          	li	a5,122
     5d8:	56f50463          	beq	a0,a5,b40 <__stack_size+0x340>
     5dc:	54f56e63          	bltu	a0,a5,b38 <__stack_size+0x338>
     5e0:	08c00793          	li	a5,140
     5e4:	56f50363          	beq	a0,a5,b4a <__stack_size+0x34a>
     5e8:	08d00793          	li	a5,141
     5ec:	f8f51be3          	bne	a0,a5,582 <get_packet+0x46>
     5f0:	22f010ef          	jal	ra,201e <usbSerial_blocking_read_u8>
     5f4:	892a                	mv	s2,a0
     5f6:	229010ef          	jal	ra,201e <usbSerial_blocking_read_u8>
     5fa:	6789                	lui	a5,0x2
     5fc:	53078793          	addi	a5,a5,1328 # 2530 <main+0x7c>
     600:	0818                	addi	a4,sp,16
     602:	01051a93          	slli	s5,a0,0x10
     606:	0942                	slli	s2,s2,0x10
     608:	74f9                	lui	s1,0xffffe
     60a:	97ba                	add	a5,a5,a4
     60c:	4405                	li	s0,1
     60e:	010ada93          	srli	s5,s5,0x10
     612:	01095913          	srli	s2,s2,0x10
     616:	94be                	add	s1,s1,a5
     618:	08000a13          	li	s4,128
     61c:	0ff47993          	andi	s3,s0,255
     620:	864e                	mv	a2,s3
     622:	85d6                	mv	a1,s5
     624:	854a                	mv	a0,s2
     626:	329000ef          	jal	ra,114e <i2c_scan_address>
     62a:	c519                	beqz	a0,638 <get_packet+0xfc>
     62c:	4585                	li	a1,1
     62e:	8526                	mv	a0,s1
     630:	01348023          	sb	s3,0(s1) # ffffe000 <_eusrstack+0xdfff9000>
     634:	301010ef          	jal	ra,2134 <usbSerial_blocking_writeP>
     638:	0405                	addi	s0,s0,1
     63a:	ff4411e3          	bne	s0,s4,61c <get_packet+0xe0>
     63e:	6709                	lui	a4,0x2
     640:	53070713          	addi	a4,a4,1328 # 2530 <main+0x7c>
     644:	0814                	addi	a3,sp,16
     646:	77f9                	lui	a5,0xffffe
     648:	9736                	add	a4,a4,a3
     64a:	97ba                	add	a5,a5,a4
     64c:	c63e                	sw	a5,12(sp)
     64e:	00078023          	sb	zero,0(a5) # ffffe000 <_eusrstack+0xdfff9000>
     652:	ac6d                	j	90c <__stack_size+0x10c>
     654:	0a000793          	li	a5,160
     658:	74f50b63          	beq	a0,a5,dae <__stack_size+0x5ae>
     65c:	06a7e863          	bltu	a5,a0,6cc <get_packet+0x190>
     660:	09800793          	li	a5,152
     664:	68f50f63          	beq	a0,a5,d02 <__stack_size+0x502>
     668:	02a7e963          	bltu	a5,a0,69a <get_packet+0x15e>
     66c:	09000793          	li	a5,144
     670:	5af50a63          	beq	a0,a5,c24 <__stack_size+0x424>
     674:	4ef56b63          	bltu	a0,a5,b6a <__stack_size+0x36a>
     678:	09700793          	li	a5,151
     67c:	f0f513e3          	bne	a0,a5,582 <get_packet+0x46>
     680:	08800793          	li	a5,136
     684:	8007b073          	csrc	0x800,a5
     688:	0000100f          	fence.i
     68c:	8401a623          	sw	zero,-1972(gp) # 200000cc <pio_head>
     690:	8401a423          	sw	zero,-1976(gp) # 200000c8 <pio_count>
     694:	8007a073          	csrs	0x800,a5
     698:	b5ed                	j	582 <get_packet+0x46>
     69a:	09a00793          	li	a5,154
     69e:	6af50963          	beq	a0,a5,d50 <__stack_size+0x550>
     6a2:	60f56463          	bltu	a0,a5,caa <__stack_size+0x4aa>
     6a6:	09b00793          	li	a5,155
     6aa:	66f50463          	beq	a0,a5,d12 <__stack_size+0x512>
     6ae:	09c00793          	li	a5,156
     6b2:	ecf518e3          	bne	a0,a5,582 <get_packet+0x46>
     6b6:	08800793          	li	a5,136
     6ba:	8007b073          	csrc	0x800,a5
     6be:	0000100f          	fence.i
     6c2:	8007a073          	csrs	0x800,a5
     6c6:	8481a503          	lw	a0,-1976(gp) # 200000c8 <pio_count>
     6ca:	aab5                	j	846 <__stack_size+0x46>
     6cc:	0b700793          	li	a5,183
     6d0:	7cf50b63          	beq	a0,a5,ea6 <__stack_size+0x6a6>
     6d4:	0aa7ea63          	bltu	a5,a0,788 <get_packet+0x24c>
     6d8:	0b400793          	li	a5,180
     6dc:	74f50e63          	beq	a0,a5,e38 <__stack_size+0x638>
     6e0:	06a7e963          	bltu	a5,a0,752 <get_packet+0x216>
     6e4:	0aa00793          	li	a5,170
     6e8:	e8f51de3          	bne	a0,a5,582 <get_packet+0x46>
     6ec:	133010ef          	jal	ra,201e <usbSerial_blocking_read_u8>
     6f0:	8a2a                	mv	s4,a0
     6f2:	1af010ef          	jal	ra,20a0 <usbSerial_blocking_read_u32>
     6f6:	6789                	lui	a5,0x2
     6f8:	53078793          	addi	a5,a5,1328 # 2530 <main+0x7c>
     6fc:	0818                	addi	a4,sp,16
     6fe:	7979                	lui	s2,0xffffe
     700:	97ba                	add	a5,a5,a4
     702:	89aa                	mv	s3,a0
     704:	4481                	li	s1,0
     706:	993e                	add	s2,s2,a5
     708:	73349063          	bne	s1,s3,e28 <__stack_size+0x628>
     70c:	4405                	li	s0,1
     70e:	6789                	lui	a5,0x2
     710:	01441433          	sll	s0,s0,s4
     714:	53078793          	addi	a5,a5,1328 # 2530 <main+0x7c>
     718:	0818                	addi	a4,sp,16
     71a:	0442                	slli	s0,s0,0x10
     71c:	74f9                	lui	s1,0xffffe
     71e:	97ba                	add	a5,a5,a4
     720:	8041                	srli	s0,s0,0x10
     722:	94be                	add	s1,s1,a5
     724:	4901                	li	s2,0
     726:	e5397ee3          	bgeu	s2,s3,582 <get_packet+0x46>
     72a:	208c                	lbu	a1,0(s1)
     72c:	0014ca83          	lbu	s5,1(s1) # ffffe001 <_eusrstack+0xdfff9001>
     730:	8522                	mv	a0,s0
     732:	0024ca03          	lbu	s4,2(s1)
     736:	3145                	jal	3d6 <neopixel_send_byte>
     738:	85d6                	mv	a1,s5
     73a:	8522                	mv	a0,s0
     73c:	3969                	jal	3d6 <neopixel_send_byte>
     73e:	85d2                	mv	a1,s4
     740:	8522                	mv	a0,s0
     742:	3951                	jal	3d6 <neopixel_send_byte>
     744:	0c800513          	li	a0,200
     748:	19f020ef          	jal	ra,30e6 <Delay_Us>
     74c:	090d                	addi	s2,s2,3
     74e:	048d                	addi	s1,s1,3
     750:	bfd9                	j	726 <get_packet+0x1ea>
     752:	0b500793          	li	a5,181
     756:	72f50363          	beq	a0,a5,e7c <__stack_size+0x67c>
     75a:	0b600793          	li	a5,182
     75e:	e2f512e3          	bne	a0,a5,582 <get_packet+0x46>
     762:	0bd010ef          	jal	ra,201e <usbSerial_blocking_read_u8>
     766:	4485                	li	s1,1
     768:	00a494b3          	sll	s1,s1,a0
     76c:	40011437          	lui	s0,0x40011
     770:	80942a23          	sw	s1,-2028(s0) # 40010814 <_eusrstack+0x2000b814>
     774:	4519                	li	a0,6
     776:	171020ef          	jal	ra,30e6 <Delay_Us>
     77a:	80040413          	addi	s0,s0,-2048
     77e:	c804                	sw	s1,16(s0)
     780:	04000513          	li	a0,64
     784:	71a0006f          	j	e9e <__stack_size+0x69e>
     788:	0bf00793          	li	a5,191
     78c:	74f50b63          	beq	a0,a5,ee2 <__stack_size+0x6e2>
     790:	02a7ed63          	bltu	a5,a0,7ca <get_packet+0x28e>
     794:	0be00793          	li	a5,190
     798:	def515e3          	bne	a0,a5,582 <get_packet+0x46>
     79c:	083010ef          	jal	ra,201e <usbSerial_blocking_read_u8>
     7a0:	892a                	mv	s2,a0
     7a2:	07d010ef          	jal	ra,201e <usbSerial_blocking_read_u8>
     7a6:	84aa                	mv	s1,a0
     7a8:	077010ef          	jal	ra,201e <usbSerial_blocking_read_u8>
     7ac:	842a                	mv	s0,a0
     7ae:	01091513          	slli	a0,s2,0x10
     7b2:	45c1                	li	a1,16
     7b4:	8141                	srli	a0,a0,0x10
     7b6:	2b9000ef          	jal	ra,126e <GPIO_Init_Small>
     7ba:	01049513          	slli	a0,s1,0x10
     7be:	45c1                	li	a1,16
     7c0:	8141                	srli	a0,a0,0x10
     7c2:	2ad000ef          	jal	ra,126e <GPIO_Init_Small>
     7c6:	4591                	li	a1,4
     7c8:	ae71                	j	b64 <__stack_size+0x364>
     7ca:	0c000793          	li	a5,192
     7ce:	76f50b63          	beq	a0,a5,f44 <__stack_size+0x744>
     7d2:	0c100793          	li	a5,193
     7d6:	daf516e3          	bne	a0,a5,582 <get_packet+0x46>
     7da:	045010ef          	jal	ra,201e <usbSerial_blocking_read_u8>
     7de:	89aa                	mv	s3,a0
     7e0:	03f010ef          	jal	ra,201e <usbSerial_blocking_read_u8>
     7e4:	8a2a                	mv	s4,a0
     7e6:	039010ef          	jal	ra,201e <usbSerial_blocking_read_u8>
     7ea:	8aaa                	mv	s5,a0
     7ec:	033010ef          	jal	ra,201e <usbSerial_blocking_read_u8>
     7f0:	8b2a                	mv	s6,a0
     7f2:	0af010ef          	jal	ra,20a0 <usbSerial_blocking_read_u32>
     7f6:	8baa                	mv	s7,a0
     7f8:	0a9010ef          	jal	ra,20a0 <usbSerial_blocking_read_u32>
     7fc:	6789                	lui	a5,0x2
     7fe:	53078793          	addi	a5,a5,1328 # 2530 <main+0x7c>
     802:	0818                	addi	a4,sp,16
     804:	74f9                	lui	s1,0xffffe
     806:	97ba                	add	a5,a5,a4
     808:	892a                	mv	s2,a0
     80a:	4401                	li	s0,0
     80c:	94be                	add	s1,s1,a5
     80e:	7b241463          	bne	s0,s2,fb6 <__stack_size+0x7b6>
     812:	6689                	lui	a3,0x2
     814:	0810                	addi	a2,sp,16
     816:	53068713          	addi	a4,a3,1328 # 2530 <main+0x7c>
     81a:	77f9                	lui	a5,0xffffe
     81c:	9732                	add	a4,a4,a2
     81e:	00f70c33          	add	s8,a4,a5
     822:	53068713          	addi	a4,a3,1328
     826:	c0078793          	addi	a5,a5,-1024 # ffffdc00 <_eusrstack+0xdfff8c00>
     82a:	9732                	add	a4,a4,a2
     82c:	4401                	li	s0,0
     82e:	00f704b3          	add	s1,a4,a5
     832:	79241a63          	bne	s0,s2,fc6 <__stack_size+0x7c6>
     836:	01041593          	slli	a1,s0,0x10
     83a:	7579                	lui	a0,0xffffe
     83c:	81c1                	srli	a1,a1,0x10
     83e:	c0050513          	addi	a0,a0,-1024 # ffffdc00 <_eusrstack+0xdfff8c00>
     842:	a4a9                	j	a8c <__stack_size+0x28c>
     844:	4501                	li	a0,0
     846:	117010ef          	jal	ra,215c <usbSerial_blocking_writeP_u32>
     84a:	bb25                	j	582 <get_packet+0x46>
     84c:	6709                	lui	a4,0x2
     84e:	0814                	addi	a3,sp,16
     850:	53070713          	addi	a4,a4,1328 # 2530 <main+0x7c>
     854:	9736                	add	a4,a4,a3
     856:	77f9                	lui	a5,0xffffe
     858:	97ba                	add	a5,a5,a4
     85a:	000045b7          	lui	a1,0x4
     85e:	1f058593          	addi	a1,a1,496 # 41f0 <_read+0x10>
     862:	4625                	li	a2,9
     864:	853e                	mv	a0,a5
     866:	c63e                	sw	a5,12(sp)
     868:	1ffff437          	lui	s0,0x1ffff
     86c:	5c1020ef          	jal	ra,362c <memcpy>
     870:	7e842503          	lw	a0,2024(s0) # 1ffff7e8 <_data_lma+0x1fffb3b8>
     874:	0e9010ef          	jal	ra,215c <usbSerial_blocking_writeP_u32>
     878:	7ec42503          	lw	a0,2028(s0)
     87c:	0e1010ef          	jal	ra,215c <usbSerial_blocking_writeP_u32>
     880:	7f042503          	lw	a0,2032(s0)
     884:	0d9010ef          	jal	ra,215c <usbSerial_blocking_writeP_u32>
     888:	45a1                	li	a1,8
     88a:	4532                	lw	a0,12(sp)
     88c:	a051                	j	910 <__stack_size+0x110>
     88e:	790010ef          	jal	ra,201e <usbSerial_blocking_read_u8>
     892:	45c1                	li	a1,16
     894:	0542                	slli	a0,a0,0x10
     896:	8141                	srli	a0,a0,0x10
     898:	1d7000ef          	jal	ra,126e <GPIO_Init_Small>
     89c:	b1dd                	j	582 <get_packet+0x46>
     89e:	780010ef          	jal	ra,201e <usbSerial_blocking_read_u8>
     8a2:	45d1                	li	a1,20
     8a4:	bfc5                	j	894 <__stack_size+0x94>
     8a6:	778010ef          	jal	ra,201e <usbSerial_blocking_read_u8>
     8aa:	4591                	li	a1,4
     8ac:	b7e5                	j	894 <__stack_size+0x94>
     8ae:	770010ef          	jal	ra,201e <usbSerial_blocking_read_u8>
     8b2:	04800593          	li	a1,72
     8b6:	bff9                	j	894 <__stack_size+0x94>
     8b8:	766010ef          	jal	ra,201e <usbSerial_blocking_read_u8>
     8bc:	4785                	li	a5,1
     8be:	00a79533          	sll	a0,a5,a0
     8c2:	400117b7          	lui	a5,0x40011
     8c6:	80a7a823          	sw	a0,-2032(a5) # 40010810 <_eusrstack+0x2000b810>
     8ca:	b965                	j	582 <get_packet+0x46>
     8cc:	752010ef          	jal	ra,201e <usbSerial_blocking_read_u8>
     8d0:	4785                	li	a5,1
     8d2:	00a79533          	sll	a0,a5,a0
     8d6:	400117b7          	lui	a5,0x40011
     8da:	80a7aa23          	sw	a0,-2028(a5) # 40010814 <_eusrstack+0x2000b814>
     8de:	b155                	j	582 <get_packet+0x46>
     8e0:	73e010ef          	jal	ra,201e <usbSerial_blocking_read_u8>
     8e4:	6689                	lui	a3,0x2
     8e6:	400117b7          	lui	a5,0x40011
     8ea:	53068693          	addi	a3,a3,1328 # 2530 <main+0x7c>
     8ee:	0810                	addi	a2,sp,16
     8f0:	8087a703          	lw	a4,-2040(a5) # 40010808 <_eusrstack+0x2000b808>
     8f4:	96b2                	add	a3,a3,a2
     8f6:	77f9                	lui	a5,0xffffe
     8f8:	97b6                	add	a5,a5,a3
     8fa:	c63e                	sw	a5,12(sp)
     8fc:	4785                	li	a5,1
     8fe:	00a79533          	sll	a0,a5,a0
     902:	47b2                	lw	a5,12(sp)
     904:	8d79                	and	a0,a0,a4
     906:	00a03533          	snez	a0,a0
     90a:	c388                	sw	a0,0(a5)
     90c:	4585                	li	a1,1
     90e:	853e                	mv	a0,a5
     910:	025010ef          	jal	ra,2134 <usbSerial_blocking_writeP>
     914:	b1bd                	j	582 <get_packet+0x46>
     916:	6789                	lui	a5,0x2
     918:	0818                	addi	a4,sp,16
     91a:	53078793          	addi	a5,a5,1328 # 2530 <main+0x7c>
     91e:	97ba                	add	a5,a5,a4
     920:	74f9                	lui	s1,0xffffe
     922:	94be                	add	s1,s1,a5
     924:	ac04ac23          	sw	zero,-1320(s1) # ffffdad8 <_eusrstack+0xdfff8ad8>
     928:	ac04ae23          	sw	zero,-1316(s1)
     92c:	774010ef          	jal	ra,20a0 <usbSerial_blocking_read_u32>
     930:	842a                	mv	s0,a0
     932:	4901                	li	s2,0
     934:	16891363          	bne	s2,s0,a9a <__stack_size+0x29a>
     938:	6789                	lui	a5,0x2
     93a:	53078793          	addi	a5,a5,1328 # 2530 <main+0x7c>
     93e:	0818                	addi	a4,sp,16
     940:	74f9                	lui	s1,0xffffe
     942:	97ba                	add	a5,a5,a4
     944:	85a2                	mv	a1,s0
     946:	00978533          	add	a0,a5,s1
     94a:	585000ef          	jal	ra,16ce <writes_registers>
     94e:	14051d63          	bnez	a0,aa8 <__stack_size+0x2a8>
     952:	6789                	lui	a5,0x2
     954:	53078793          	addi	a5,a5,1328 # 2530 <main+0x7c>
     958:	0818                	addi	a4,sp,16
     95a:	74f9                	lui	s1,0xffffe
     95c:	97ba                	add	a5,a5,a4
     95e:	85a2                	mv	a1,s0
     960:	00978533          	add	a0,a5,s1
     964:	53f000ef          	jal	ra,16a2 <reads_registers>
     968:	16051363          	bnez	a0,ace <__stack_size+0x2ce>
     96c:	85a2                	mv	a1,s0
     96e:	54010513          	addi	a0,sp,1344
     972:	74f9                	lui	s1,0xffffe
     974:	587000ef          	jal	ra,16fa <reads_pile>
     978:	c51d                	beqz	a0,9a6 <__stack_size+0x1a6>
     97a:	726010ef          	jal	ra,20a0 <usbSerial_blocking_read_u32>
     97e:	6789                	lui	a5,0x2
     980:	53078793          	addi	a5,a5,1328 # 2530 <main+0x7c>
     984:	0818                	addi	a4,sp,16
     986:	b0048493          	addi	s1,s1,-1280 # ffffdb00 <_eusrstack+0xdfff8b00>
     98a:	97ba                	add	a5,a5,a4
     98c:	cc2a                	sw	a0,24(sp)
     98e:	4901                	li	s2,0
     990:	94be                	add	s1,s1,a5
     992:	10000993          	li	s3,256
     996:	688010ef          	jal	ra,201e <usbSerial_blocking_read_u8>
     99a:	012487b3          	add	a5,s1,s2
     99e:	a388                	sb	a0,0(a5)
     9a0:	0905                	addi	s2,s2,1
     9a2:	ff391ae3          	bne	s2,s3,996 <__stack_size+0x196>
     9a6:	6789                	lui	a5,0x2
     9a8:	53078793          	addi	a5,a5,1328 # 2530 <main+0x7c>
     9ac:	0818                	addi	a4,sp,16
     9ae:	74f9                	lui	s1,0xffffe
     9b0:	97ba                	add	a5,a5,a4
     9b2:	85a2                	mv	a1,s0
     9b4:	00978533          	add	a0,a5,s1
     9b8:	569000ef          	jal	ra,1720 <writes_pile>
     9bc:	12051d63          	bnez	a0,af6 <__stack_size+0x2f6>
     9c0:	6509                	lui	a0,0x2
     9c2:	01010893          	addi	a7,sp,16
     9c6:	53050493          	addi	s1,a0,1328 # 2530 <main+0x7c>
     9ca:	7679                	lui	a2,0xffffe
     9cc:	94c6                	add	s1,s1,a7
     9ce:	adc60813          	addi	a6,a2,-1316 # ffffdadc <_eusrstack+0xdfff8adc>
     9d2:	ad860793          	addi	a5,a2,-1320
     9d6:	c0060713          	addi	a4,a2,-1024
     9da:	b0060693          	addi	a3,a2,-1280
     9de:	ae060593          	addi	a1,a2,-1312
     9e2:	9626                	add	a2,a2,s1
     9e4:	c632                	sw	a2,12(sp)
     9e6:	53050613          	addi	a2,a0,1328
     9ea:	9646                	add	a2,a2,a7
     9ec:	9832                	add	a6,a6,a2
     9ee:	53050613          	addi	a2,a0,1328
     9f2:	9646                	add	a2,a2,a7
     9f4:	97b2                	add	a5,a5,a2
     9f6:	53050613          	addi	a2,a0,1328
     9fa:	9646                	add	a2,a2,a7
     9fc:	9732                	add	a4,a4,a2
     9fe:	53050613          	addi	a2,a0,1328
     a02:	53050513          	addi	a0,a0,1328
     a06:	9546                	add	a0,a0,a7
     a08:	95aa                	add	a1,a1,a0
     a0a:	4532                	lw	a0,12(sp)
     a0c:	9646                	add	a2,a2,a7
     a0e:	96b2                	add	a3,a3,a2
     a10:	8622                	mv	a2,s0
     a12:	0bf000ef          	jal	ra,12d0 <run>
     a16:	4532                	lw	a0,12(sp)
     a18:	85a2                	mv	a1,s0
     a1a:	4b5000ef          	jal	ra,16ce <writes_registers>
     a1e:	00a034b3          	snez	s1,a0
     a22:	4532                	lw	a0,12(sp)
     a24:	85a2                	mv	a1,s0
     a26:	0496                	slli	s1,s1,0x5
     a28:	4f9000ef          	jal	ra,1720 <writes_pile>
     a2c:	c119                	beqz	a0,a32 <__stack_size+0x232>
     a2e:	10448493          	addi	s1,s1,260 # ffffe104 <_eusrstack+0xdfff9104>
     a32:	8526                	mv	a0,s1
     a34:	728010ef          	jal	ra,215c <usbSerial_blocking_writeP_u32>
     a38:	4509                	li	a0,2
     a3a:	722010ef          	jal	ra,215c <usbSerial_blocking_writeP_u32>
     a3e:	6789                	lui	a5,0x2
     a40:	53078793          	addi	a5,a5,1328 # 2530 <main+0x7c>
     a44:	0818                	addi	a4,sp,16
     a46:	74f9                	lui	s1,0xffffe
     a48:	97ba                	add	a5,a5,a4
     a4a:	85a2                	mv	a1,s0
     a4c:	00978533          	add	a0,a5,s1
     a50:	47f000ef          	jal	ra,16ce <writes_registers>
     a54:	cd09                	beqz	a0,a6e <__stack_size+0x26e>
     a56:	6789                	lui	a5,0x2
     a58:	53078793          	addi	a5,a5,1328 # 2530 <main+0x7c>
     a5c:	0818                	addi	a4,sp,16
     a5e:	ae048513          	addi	a0,s1,-1312 # ffffdae0 <_eusrstack+0xdfff8ae0>
     a62:	97ba                	add	a5,a5,a4
     a64:	02000593          	li	a1,32
     a68:	953e                	add	a0,a0,a5
     a6a:	6ca010ef          	jal	ra,2134 <usbSerial_blocking_writeP>
     a6e:	85a2                	mv	a1,s0
     a70:	54010513          	addi	a0,sp,1344
     a74:	74f9                	lui	s1,0xffffe
     a76:	4ab000ef          	jal	ra,1720 <writes_pile>
     a7a:	b00504e3          	beqz	a0,582 <get_packet+0x46>
     a7e:	4572                	lw	a0,28(sp)
     a80:	6dc010ef          	jal	ra,215c <usbSerial_blocking_writeP_u32>
     a84:	c0048513          	addi	a0,s1,-1024 # ffffdc00 <_eusrstack+0xdfff8c00>
     a88:	10000593          	li	a1,256
     a8c:	6789                	lui	a5,0x2
     a8e:	53078793          	addi	a5,a5,1328 # 2530 <main+0x7c>
     a92:	0818                	addi	a4,sp,16
     a94:	97ba                	add	a5,a5,a4
     a96:	953e                	add	a0,a0,a5
     a98:	bda5                	j	910 <__stack_size+0x110>
     a9a:	584010ef          	jal	ra,201e <usbSerial_blocking_read_u8>
     a9e:	012487b3          	add	a5,s1,s2
     aa2:	a388                	sb	a0,0(a5)
     aa4:	0905                	addi	s2,s2,1
     aa6:	b579                	j	934 <__stack_size+0x134>
     aa8:	6709                	lui	a4,0x2
     aaa:	53070713          	addi	a4,a4,1328 # 2530 <main+0x7c>
     aae:	0814                	addi	a3,sp,16
     ab0:	9736                	add	a4,a4,a3
     ab2:	ae048493          	addi	s1,s1,-1312
     ab6:	94ba                	add	s1,s1,a4
     ab8:	4781                	li	a5,0
     aba:	02000713          	li	a4,32
     abe:	00f486b3          	add	a3,s1,a5
     ac2:	00068023          	sb	zero,0(a3)
     ac6:	0785                	addi	a5,a5,1
     ac8:	fee79be3          	bne	a5,a4,abe <__stack_size+0x2be>
     acc:	b559                	j	952 <__stack_size+0x152>
     ace:	6789                	lui	a5,0x2
     ad0:	53078793          	addi	a5,a5,1328 # 2530 <main+0x7c>
     ad4:	0818                	addi	a4,sp,16
     ad6:	ae048493          	addi	s1,s1,-1312
     ada:	97ba                	add	a5,a5,a4
     adc:	4901                	li	s2,0
     ade:	94be                	add	s1,s1,a5
     ae0:	02000993          	li	s3,32
     ae4:	53a010ef          	jal	ra,201e <usbSerial_blocking_read_u8>
     ae8:	012487b3          	add	a5,s1,s2
     aec:	a388                	sb	a0,0(a5)
     aee:	0905                	addi	s2,s2,1
     af0:	ff391ae3          	bne	s2,s3,ae4 <__stack_size+0x2e4>
     af4:	bda5                	j	96c <__stack_size+0x16c>
     af6:	6709                	lui	a4,0x2
     af8:	53070713          	addi	a4,a4,1328 # 2530 <main+0x7c>
     afc:	0814                	addi	a3,sp,16
     afe:	9736                	add	a4,a4,a3
     b00:	c0048493          	addi	s1,s1,-1024
     b04:	94ba                	add	s1,s1,a4
     b06:	4781                	li	a5,0
     b08:	10000713          	li	a4,256
     b0c:	00f486b3          	add	a3,s1,a5
     b10:	00068023          	sb	zero,0(a3)
     b14:	0785                	addi	a5,a5,1
     b16:	fee79be3          	bne	a5,a4,b0c <__stack_size+0x30c>
     b1a:	b55d                	j	9c0 <__stack_size+0x1c0>
     b1c:	502010ef          	jal	ra,201e <usbSerial_blocking_read_u8>
     b20:	842a                	mv	s0,a0
     b22:	4fc010ef          	jal	ra,201e <usbSerial_blocking_read_u8>
     b26:	01051593          	slli	a1,a0,0x10
     b2a:	01041513          	slli	a0,s0,0x10
     b2e:	81c1                	srli	a1,a1,0x10
     b30:	8141                	srli	a0,a0,0x10
     b32:	fbcff0ef          	jal	ra,2ee <set_duty>
     b36:	b4b1                	j	582 <get_packet+0x46>
     b38:	4e6010ef          	jal	ra,201e <usbSerial_blocking_read_u8>
     b3c:	4581                	li	a1,0
     b3e:	bb99                	j	894 <__stack_size+0x94>
     b40:	4de010ef          	jal	ra,201e <usbSerial_blocking_read_u8>
     b44:	ed2ff0ef          	jal	ra,216 <ADC1_ReadChannel>
     b48:	b9fd                	j	846 <__stack_size+0x46>
     b4a:	4d4010ef          	jal	ra,201e <usbSerial_blocking_read_u8>
     b4e:	84aa                	mv	s1,a0
     b50:	4ce010ef          	jal	ra,201e <usbSerial_blocking_read_u8>
     b54:	842a                	mv	s0,a0
     b56:	01049513          	slli	a0,s1,0x10
     b5a:	45d1                	li	a1,20
     b5c:	8141                	srli	a0,a0,0x10
     b5e:	710000ef          	jal	ra,126e <GPIO_Init_Small>
     b62:	45d1                	li	a1,20
     b64:	01041513          	slli	a0,s0,0x10
     b68:	b33d                	j	896 <__stack_size+0x96>
     b6a:	4b4010ef          	jal	ra,201e <usbSerial_blocking_read_u8>
     b6e:	89aa                	mv	s3,a0
     b70:	4ae010ef          	jal	ra,201e <usbSerial_blocking_read_u8>
     b74:	8a2a                	mv	s4,a0
     b76:	4a8010ef          	jal	ra,201e <usbSerial_blocking_read_u8>
     b7a:	0506                	slli	a0,a0,0x1
     b7c:	0ff57493          	andi	s1,a0,255
     b80:	520010ef          	jal	ra,20a0 <usbSerial_blocking_read_u32>
     b84:	6789                	lui	a5,0x2
     b86:	53078793          	addi	a5,a5,1328 # 2530 <main+0x7c>
     b8a:	0818                	addi	a4,sp,16
     b8c:	7979                	lui	s2,0xffffe
     b8e:	97ba                	add	a5,a5,a4
     b90:	8aaa                	mv	s5,a0
     b92:	4401                	li	s0,0
     b94:	993e                	add	s2,s2,a5
     b96:	03541763          	bne	s0,s5,bc4 <__stack_size+0x3c4>
     b9a:	484010ef          	jal	ra,201e <usbSerial_blocking_read_u8>
     b9e:	6609                	lui	a2,0x2
     ba0:	080c                	addi	a1,sp,16
     ba2:	53060613          	addi	a2,a2,1328 # 2530 <main+0x7c>
     ba6:	962e                	add	a2,a2,a1
     ba8:	87aa                	mv	a5,a0
     baa:	010a1593          	slli	a1,s4,0x10
     bae:	01099513          	slli	a0,s3,0x10
     bb2:	76f9                	lui	a3,0xffffe
     bb4:	96b2                	add	a3,a3,a2
     bb6:	8722                	mv	a4,s0
     bb8:	8626                	mv	a2,s1
     bba:	81c1                	srli	a1,a1,0x10
     bbc:	8141                	srli	a0,a0,0x10
     bbe:	5bc000ef          	jal	ra,117a <i2c_send_bytes>
     bc2:	b2c1                	j	582 <get_packet+0x46>
     bc4:	45a010ef          	jal	ra,201e <usbSerial_blocking_read_u8>
     bc8:	008907b3          	add	a5,s2,s0
     bcc:	a388                	sb	a0,0(a5)
     bce:	0405                	addi	s0,s0,1
     bd0:	b7d9                	j	b96 <__stack_size+0x396>
     bd2:	44c010ef          	jal	ra,201e <usbSerial_blocking_read_u8>
     bd6:	892a                	mv	s2,a0
     bd8:	446010ef          	jal	ra,201e <usbSerial_blocking_read_u8>
     bdc:	89aa                	mv	s3,a0
     bde:	440010ef          	jal	ra,201e <usbSerial_blocking_read_u8>
     be2:	842a                	mv	s0,a0
     be4:	4bc010ef          	jal	ra,20a0 <usbSerial_blocking_read_u32>
     be8:	84aa                	mv	s1,a0
     bea:	434010ef          	jal	ra,201e <usbSerial_blocking_read_u8>
     bee:	6709                	lui	a4,0x2
     bf0:	0814                	addi	a3,sp,16
     bf2:	53070713          	addi	a4,a4,1328 # 2530 <main+0x7c>
     bf6:	9736                	add	a4,a4,a3
     bf8:	77f9                	lui	a5,0xffffe
     bfa:	97ba                	add	a5,a5,a4
     bfc:	c63e                	sw	a5,12(sp)
     bfe:	46b2                	lw	a3,12(sp)
     c00:	87aa                	mv	a5,a0
     c02:	00141613          	slli	a2,s0,0x1
     c06:	01099593          	slli	a1,s3,0x10
     c0a:	01091513          	slli	a0,s2,0x10
     c0e:	81c1                	srli	a1,a1,0x10
     c10:	8726                	mv	a4,s1
     c12:	0fe67613          	andi	a2,a2,254
     c16:	8141                	srli	a0,a0,0x10
     c18:	5a0000ef          	jal	ra,11b8 <i2c_recv_bytes>
     c1c:	01049593          	slli	a1,s1,0x10
     c20:	81c1                	srli	a1,a1,0x10
     c22:	b1a5                	j	88a <__stack_size+0x8a>
     c24:	3fa010ef          	jal	ra,201e <usbSerial_blocking_read_u8>
     c28:	89aa                	mv	s3,a0
     c2a:	3f4010ef          	jal	ra,201e <usbSerial_blocking_read_u8>
     c2e:	8a2a                	mv	s4,a0
     c30:	3ee010ef          	jal	ra,201e <usbSerial_blocking_read_u8>
     c34:	0506                	slli	a0,a0,0x1
     c36:	0ff57913          	andi	s2,a0,255
     c3a:	466010ef          	jal	ra,20a0 <usbSerial_blocking_read_u32>
     c3e:	6789                	lui	a5,0x2
     c40:	74f9                	lui	s1,0xffffe
     c42:	53078793          	addi	a5,a5,1328 # 2530 <main+0x7c>
     c46:	0818                	addi	a4,sp,16
     c48:	c0048493          	addi	s1,s1,-1024 # ffffdc00 <_eusrstack+0xdfff8c00>
     c4c:	97ba                	add	a5,a5,a4
     c4e:	8aaa                	mv	s5,a0
     c50:	4401                	li	s0,0
     c52:	94be                	add	s1,s1,a5
     c54:	05541463          	bne	s0,s5,c9c <__stack_size+0x49c>
     c58:	448010ef          	jal	ra,20a0 <usbSerial_blocking_read_u32>
     c5c:	84aa                	mv	s1,a0
     c5e:	3c0010ef          	jal	ra,201e <usbSerial_blocking_read_u8>
     c62:	6609                	lui	a2,0x2
     c64:	080c                	addi	a1,sp,16
     c66:	76f9                	lui	a3,0xffffe
     c68:	53060613          	addi	a2,a2,1328 # 2530 <main+0x7c>
     c6c:	962e                	add	a2,a2,a1
     c6e:	88aa                	mv	a7,a0
     c70:	c0068693          	addi	a3,a3,-1024 # ffffdc00 <_eusrstack+0xdfff8c00>
     c74:	010a1593          	slli	a1,s4,0x10
     c78:	01099513          	slli	a0,s3,0x10
     c7c:	96b2                	add	a3,a3,a2
     c7e:	81c1                	srli	a1,a1,0x10
     c80:	8141                	srli	a0,a0,0x10
     c82:	8826                	mv	a6,s1
     c84:	54010793          	addi	a5,sp,1344
     c88:	8722                	mv	a4,s0
     c8a:	864a                	mv	a2,s2
     c8c:	578000ef          	jal	ra,1204 <i2c_send_recv_bytes>
     c90:	01049593          	slli	a1,s1,0x10
     c94:	81c1                	srli	a1,a1,0x10
     c96:	54010513          	addi	a0,sp,1344
     c9a:	b99d                	j	910 <__stack_size+0x110>
     c9c:	382010ef          	jal	ra,201e <usbSerial_blocking_read_u8>
     ca0:	008487b3          	add	a5,s1,s0
     ca4:	a388                	sb	a0,0(a5)
     ca6:	0405                	addi	s0,s0,1
     ca8:	b775                	j	c54 <__stack_size+0x454>
     caa:	374010ef          	jal	ra,201e <usbSerial_blocking_read_u8>
     cae:	842a                	mv	s0,a0
     cb0:	3f0010ef          	jal	ra,20a0 <usbSerial_blocking_read_u32>
     cb4:	01051793          	slli	a5,a0,0x10
     cb8:	01041913          	slli	s2,s0,0x10
     cbc:	83c1                	srli	a5,a5,0x10
     cbe:	89aa                	mv	s3,a0
     cc0:	01095913          	srli	s2,s2,0x10
     cc4:	c785                	beqz	a5,cec <__stack_size+0x4ec>
     cc6:	45d1                	li	a1,20
     cc8:	854a                	mv	a0,s2
     cca:	5a4000ef          	jal	ra,126e <GPIO_Init_Small>
     cce:	4485                	li	s1,1
     cd0:	008494b3          	sll	s1,s1,s0
     cd4:	01099513          	slli	a0,s3,0x10
     cd8:	40011437          	lui	s0,0x40011
     cdc:	80942a23          	sw	s1,-2028(s0) # 40010814 <_eusrstack+0x2000b814>
     ce0:	8141                	srli	a0,a0,0x10
     ce2:	404020ef          	jal	ra,30e6 <Delay_Us>
     ce6:	80040413          	addi	s0,s0,-2048
     cea:	c804                	sw	s1,16(s0)
     cec:	4591                	li	a1,4
     cee:	854a                	mv	a0,s2
     cf0:	57e000ef          	jal	ra,126e <GPIO_Init_Small>
     cf4:	854a                	mv	a0,s2
     cf6:	d66ff0ef          	jal	ra,25c <EXTI_INIT>
     cfa:	4ec010ef          	jal	ra,21e6 <TIM4_pulseio_start>
     cfe:	885ff06f          	j	582 <get_packet+0x46>
     d02:	31c010ef          	jal	ra,201e <usbSerial_blocking_read_u8>
     d06:	dc2ff0ef          	jal	ra,2c8 <EXTI_DEINIT>
     d0a:	506010ef          	jal	ra,2210 <TIM4_pulseio_stop>
     d0e:	875ff06f          	j	582 <get_packet+0x46>
     d12:	08800713          	li	a4,136
     d16:	80073073          	csrc	0x800,a4
     d1a:	0000100f          	fence.i
     d1e:	8481a683          	lw	a3,-1976(gp) # 200000c8 <pio_count>
     d22:	84c1a783          	lw	a5,-1972(gp) # 200000cc <pio_head>
     d26:	fff68593          	addi	a1,a3,-1
     d2a:	84b1a423          	sw	a1,-1976(gp) # 200000c8 <pio_count>
     d2e:	80072073          	csrs	0x800,a4
     d32:	6705                	lui	a4,0x1
     d34:	bb870713          	addi	a4,a4,-1096 # bb8 <__stack_size+0x3b8>
     d38:	97ba                	add	a5,a5,a4
     d3a:	8f95                	sub	a5,a5,a3
     d3c:	02e7f7b3          	remu	a5,a5,a4
     d40:	20001737          	lui	a4,0x20001
     d44:	1e470713          	addi	a4,a4,484 # 200011e4 <pio_buffer>
     d48:	0786                	slli	a5,a5,0x1
     d4a:	97ba                	add	a5,a5,a4
     d4c:	238a                	lhu	a0,0(a5)
     d4e:	bce5                	j	846 <__stack_size+0x46>
     d50:	350010ef          	jal	ra,20a0 <usbSerial_blocking_read_u32>
     d54:	08800793          	li	a5,136
     d58:	8007b073          	csrc	0x800,a5
     d5c:	0000100f          	fence.i
     d60:	84c1a403          	lw	s0,-1972(gp) # 200000cc <pio_head>
     d64:	8007a073          	csrs	0x800,a5
     d68:	8481a903          	lw	s2,-1976(gp) # 200000c8 <pio_count>
     d6c:	01257363          	bgeu	a0,s2,d72 <__stack_size+0x572>
     d70:	892a                	mv	s2,a0
     d72:	854a                	mv	a0,s2
     d74:	3e8010ef          	jal	ra,215c <usbSerial_blocking_writeP_u32>
     d78:	6785                	lui	a5,0x1
     d7a:	bb878793          	addi	a5,a5,-1096 # bb8 <__stack_size+0x3b8>
     d7e:	943e                	add	s0,s0,a5
     d80:	41240433          	sub	s0,s0,s2
     d84:	02f47433          	remu	s0,s0,a5
     d88:	20001a37          	lui	s4,0x20001
     d8c:	4981                	li	s3,0
     d8e:	84be                	mv	s1,a5
     d90:	1e4a0a13          	addi	s4,s4,484 # 200011e4 <pio_buffer>
     d94:	ff298763          	beq	s3,s2,582 <get_packet+0x46>
     d98:	008987b3          	add	a5,s3,s0
     d9c:	0985                	addi	s3,s3,1
     d9e:	0297f7b3          	remu	a5,a5,s1
     da2:	0786                	slli	a5,a5,0x1
     da4:	97d2                	add	a5,a5,s4
     da6:	238a                	lhu	a0,0(a5)
     da8:	3b4010ef          	jal	ra,215c <usbSerial_blocking_writeP_u32>
     dac:	b7e5                	j	d94 <__stack_size+0x594>
     dae:	270010ef          	jal	ra,201e <usbSerial_blocking_read_u8>
     db2:	842a                	mv	s0,a0
     db4:	2ec010ef          	jal	ra,20a0 <usbSerial_blocking_read_u32>
     db8:	892a                	mv	s2,a0
     dba:	2e6010ef          	jal	ra,20a0 <usbSerial_blocking_read_u32>
     dbe:	6789                	lui	a5,0x2
     dc0:	53078793          	addi	a5,a5,1328 # 2530 <main+0x7c>
     dc4:	0818                	addi	a4,sp,16
     dc6:	79f9                	lui	s3,0xffffe
     dc8:	97ba                	add	a5,a5,a4
     dca:	8a2a                	mv	s4,a0
     dcc:	4481                	li	s1,0
     dce:	99be                	add	s3,s3,a5
     dd0:	03449463          	bne	s1,s4,df8 <__stack_size+0x5f8>
     dd4:	6789                	lui	a5,0x2
     dd6:	53078793          	addi	a5,a5,1328 # 2530 <main+0x7c>
     dda:	0818                	addi	a4,sp,16
     ddc:	0442                	slli	s0,s0,0x10
     dde:	0942                	slli	s2,s2,0x10
     de0:	79f9                	lui	s3,0xffffe
     de2:	97ba                	add	a5,a5,a4
     de4:	4481                	li	s1,0
     de6:	8041                	srli	s0,s0,0x10
     de8:	01095913          	srli	s2,s2,0x10
     dec:	99be                	add	s3,s3,a5
     dee:	01449d63          	bne	s1,s4,e08 <__stack_size+0x608>
     df2:	4581                	li	a1,0
     df4:	8522                	mv	a0,s0
     df6:	bb35                	j	b32 <__stack_size+0x332>
     df8:	2a8010ef          	jal	ra,20a0 <usbSerial_blocking_read_u32>
     dfc:	00149793          	slli	a5,s1,0x1
     e00:	97ce                	add	a5,a5,s3
     e02:	a38a                	sh	a0,0(a5)
     e04:	0485                	addi	s1,s1,1
     e06:	b7e9                	j	dd0 <__stack_size+0x5d0>
     e08:	0014f793          	andi	a5,s1,1
     e0c:	4581                	li	a1,0
     e0e:	e391                	bnez	a5,e12 <__stack_size+0x612>
     e10:	85ca                	mv	a1,s2
     e12:	8522                	mv	a0,s0
     e14:	cdaff0ef          	jal	ra,2ee <set_duty>
     e18:	00149793          	slli	a5,s1,0x1
     e1c:	97ce                	add	a5,a5,s3
     e1e:	238a                	lhu	a0,0(a5)
     e20:	0485                	addi	s1,s1,1
     e22:	2c4020ef          	jal	ra,30e6 <Delay_Us>
     e26:	b7e1                	j	dee <__stack_size+0x5ee>
     e28:	1f6010ef          	jal	ra,201e <usbSerial_blocking_read_u8>
     e2c:	009907b3          	add	a5,s2,s1
     e30:	a388                	sb	a0,0(a5)
     e32:	0485                	addi	s1,s1,1
     e34:	8d5ff06f          	j	708 <get_packet+0x1cc>
     e38:	1e6010ef          	jal	ra,201e <usbSerial_blocking_read_u8>
     e3c:	4405                	li	s0,1
     e3e:	00a41433          	sll	s0,s0,a0
     e42:	4501                	li	a0,0
     e44:	2a2020ef          	jal	ra,30e6 <Delay_Us>
     e48:	400114b7          	lui	s1,0x40011
     e4c:	8084aa23          	sw	s0,-2028(s1) # 40010814 <_eusrstack+0x2000b814>
     e50:	1e000513          	li	a0,480
     e54:	292020ef          	jal	ra,30e6 <Delay_Us>
     e58:	04600513          	li	a0,70
     e5c:	8084a823          	sw	s0,-2032(s1)
     e60:	80048493          	addi	s1,s1,-2048
     e64:	282020ef          	jal	ra,30e6 <Delay_Us>
     e68:	4484                	lw	s1,8(s1)
     e6a:	19a00513          	li	a0,410
     e6e:	278020ef          	jal	ra,30e6 <Delay_Us>
     e72:	0084f533          	and	a0,s1,s0
     e76:	00153513          	seqz	a0,a0
     e7a:	b2f1                	j	846 <__stack_size+0x46>
     e7c:	1a2010ef          	jal	ra,201e <usbSerial_blocking_read_u8>
     e80:	4485                	li	s1,1
     e82:	00a494b3          	sll	s1,s1,a0
     e86:	40011437          	lui	s0,0x40011
     e8a:	80942a23          	sw	s1,-2028(s0) # 40010814 <_eusrstack+0x2000b814>
     e8e:	03c00513          	li	a0,60
     e92:	254020ef          	jal	ra,30e6 <Delay_Us>
     e96:	80040413          	addi	s0,s0,-2048
     e9a:	c804                	sw	s1,16(s0)
     e9c:	4529                	li	a0,10
     e9e:	248020ef          	jal	ra,30e6 <Delay_Us>
     ea2:	ee0ff06f          	j	582 <get_packet+0x46>
     ea6:	178010ef          	jal	ra,201e <usbSerial_blocking_read_u8>
     eaa:	4405                	li	s0,1
     eac:	00a41433          	sll	s0,s0,a0
     eb0:	400114b7          	lui	s1,0x40011
     eb4:	8084aa23          	sw	s0,-2028(s1) # 40010814 <_eusrstack+0x2000b814>
     eb8:	4519                	li	a0,6
     eba:	22c020ef          	jal	ra,30e6 <Delay_Us>
     ebe:	4525                	li	a0,9
     ec0:	8084a823          	sw	s0,-2032(s1)
     ec4:	80048493          	addi	s1,s1,-2048
     ec8:	21e020ef          	jal	ra,30e6 <Delay_Us>
     ecc:	4484                	lw	s1,8(s1)
     ece:	03700513          	li	a0,55
     ed2:	214020ef          	jal	ra,30e6 <Delay_Us>
     ed6:	0084f533          	and	a0,s1,s0
     eda:	00a03533          	snez	a0,a0
     ede:	969ff06f          	j	846 <__stack_size+0x46>
     ee2:	13c010ef          	jal	ra,201e <usbSerial_blocking_read_u8>
     ee6:	89aa                	mv	s3,a0
     ee8:	136010ef          	jal	ra,201e <usbSerial_blocking_read_u8>
     eec:	8a2a                	mv	s4,a0
     eee:	130010ef          	jal	ra,201e <usbSerial_blocking_read_u8>
     ef2:	8aaa                	mv	s5,a0
     ef4:	12a010ef          	jal	ra,201e <usbSerial_blocking_read_u8>
     ef8:	8b2a                	mv	s6,a0
     efa:	124010ef          	jal	ra,201e <usbSerial_blocking_read_u8>
     efe:	8baa                	mv	s7,a0
     f00:	1a0010ef          	jal	ra,20a0 <usbSerial_blocking_read_u32>
     f04:	8c2a                	mv	s8,a0
     f06:	19a010ef          	jal	ra,20a0 <usbSerial_blocking_read_u32>
     f0a:	6789                	lui	a5,0x2
     f0c:	53078793          	addi	a5,a5,1328 # 2530 <main+0x7c>
     f10:	0818                	addi	a4,sp,16
     f12:	74f9                	lui	s1,0xffffe
     f14:	97ba                	add	a5,a5,a4
     f16:	892a                	mv	s2,a0
     f18:	4401                	li	s0,0
     f1a:	94be                	add	s1,s1,a5
     f1c:	01241763          	bne	s0,s2,f2a <__stack_size+0x72a>
     f20:	01041593          	slli	a1,s0,0x10
     f24:	81c1                	srli	a1,a1,0x10
     f26:	7579                	lui	a0,0xffffe
     f28:	b695                	j	a8c <__stack_size+0x28c>
     f2a:	87e2                	mv	a5,s8
     f2c:	875a                	mv	a4,s6
     f2e:	86de                	mv	a3,s7
     f30:	8656                	mv	a2,s5
     f32:	85d2                	mv	a1,s4
     f34:	854e                	mv	a0,s3
     f36:	ce8ff0ef          	jal	ra,41e <spi_xfer_byte_bb_ch32>
     f3a:	008487b3          	add	a5,s1,s0
     f3e:	a388                	sb	a0,0(a5)
     f40:	0405                	addi	s0,s0,1
     f42:	bfe9                	j	f1c <__stack_size+0x71c>
     f44:	0da010ef          	jal	ra,201e <usbSerial_blocking_read_u8>
     f48:	89aa                	mv	s3,a0
     f4a:	0d4010ef          	jal	ra,201e <usbSerial_blocking_read_u8>
     f4e:	8a2a                	mv	s4,a0
     f50:	0ce010ef          	jal	ra,201e <usbSerial_blocking_read_u8>
     f54:	8aaa                	mv	s5,a0
     f56:	0c8010ef          	jal	ra,201e <usbSerial_blocking_read_u8>
     f5a:	8b2a                	mv	s6,a0
     f5c:	144010ef          	jal	ra,20a0 <usbSerial_blocking_read_u32>
     f60:	8baa                	mv	s7,a0
     f62:	13e010ef          	jal	ra,20a0 <usbSerial_blocking_read_u32>
     f66:	6789                	lui	a5,0x2
     f68:	53078793          	addi	a5,a5,1328 # 2530 <main+0x7c>
     f6c:	0818                	addi	a4,sp,16
     f6e:	74f9                	lui	s1,0xffffe
     f70:	97ba                	add	a5,a5,a4
     f72:	892a                	mv	s2,a0
     f74:	4401                	li	s0,0
     f76:	94be                	add	s1,s1,a5
     f78:	03241863          	bne	s0,s2,fa8 <__stack_size+0x7a8>
     f7c:	6789                	lui	a5,0x2
     f7e:	53078793          	addi	a5,a5,1328 # 2530 <main+0x7c>
     f82:	0818                	addi	a4,sp,16
     f84:	74f9                	lui	s1,0xffffe
     f86:	97ba                	add	a5,a5,a4
     f88:	4401                	li	s0,0
     f8a:	94be                	add	s1,s1,a5
     f8c:	df240b63          	beq	s0,s2,582 <get_packet+0x46>
     f90:	008486b3          	add	a3,s1,s0
     f94:	2294                	lbu	a3,0(a3)
     f96:	87de                	mv	a5,s7
     f98:	875a                	mv	a4,s6
     f9a:	8656                	mv	a2,s5
     f9c:	85d2                	mv	a1,s4
     f9e:	854e                	mv	a0,s3
     fa0:	c7eff0ef          	jal	ra,41e <spi_xfer_byte_bb_ch32>
     fa4:	0405                	addi	s0,s0,1
     fa6:	b7dd                	j	f8c <__stack_size+0x78c>
     fa8:	076010ef          	jal	ra,201e <usbSerial_blocking_read_u8>
     fac:	008487b3          	add	a5,s1,s0
     fb0:	a388                	sb	a0,0(a5)
     fb2:	0405                	addi	s0,s0,1
     fb4:	b7d1                	j	f78 <__stack_size+0x778>
     fb6:	068010ef          	jal	ra,201e <usbSerial_blocking_read_u8>
     fba:	008487b3          	add	a5,s1,s0
     fbe:	a388                	sb	a0,0(a5)
     fc0:	0405                	addi	s0,s0,1
     fc2:	84dff06f          	j	80e <__stack_size+0xe>
     fc6:	008c06b3          	add	a3,s8,s0
     fca:	2294                	lbu	a3,0(a3)
     fcc:	87de                	mv	a5,s7
     fce:	875a                	mv	a4,s6
     fd0:	8656                	mv	a2,s5
     fd2:	85d2                	mv	a1,s4
     fd4:	854e                	mv	a0,s3
     fd6:	c48ff0ef          	jal	ra,41e <spi_xfer_byte_bb_ch32>
     fda:	008487b3          	add	a5,s1,s0
     fde:	a388                	sb	a0,0(a5)
     fe0:	0405                	addi	s0,s0,1
     fe2:	851ff06f          	j	832 <__stack_size+0x32>

00000fe6 <i2c_delay>:
     fe6:	94aff2ef          	jal	t0,130 <__riscv_save_0>
     fea:	4505                	li	a0,1
     fec:	0fa020ef          	jal	ra,30e6 <Delay_Us>
     ff0:	964ff06f          	j	154 <__riscv_restore_0>

00000ff4 <i2c_start>:
     ff4:	93cff2ef          	jal	t0,130 <__riscv_save_0>
     ff8:	1141                	addi	sp,sp,-16
     ffa:	4485                	li	s1,1
     ffc:	00a49933          	sll	s2,s1,a0
    1000:	40011437          	lui	s0,0x40011
    1004:	c62e                	sw	a1,12(sp)
    1006:	81242823          	sw	s2,-2032(s0) # 40010810 <_eusrstack+0x2000b810>
    100a:	3ff1                	jal	fe6 <i2c_delay>
    100c:	45b2                	lw	a1,12(sp)
    100e:	80040413          	addi	s0,s0,-2048
    1012:	00b494b3          	sll	s1,s1,a1
    1016:	c804                	sw	s1,16(s0)
    1018:	37f9                	jal	fe6 <i2c_delay>
    101a:	01242a23          	sw	s2,20(s0)
    101e:	37e1                	jal	fe6 <i2c_delay>
    1020:	c844                	sw	s1,20(s0)
    1022:	37d1                	jal	fe6 <i2c_delay>
    1024:	0141                	addi	sp,sp,16
    1026:	92eff06f          	j	154 <__riscv_restore_0>

0000102a <i2c_send_byte>:
    102a:	8ecff2ef          	jal	t0,116 <__riscv_save_4>
    102e:	4485                	li	s1,1
    1030:	00a49933          	sll	s2,s1,a0
    1034:	1141                	addi	sp,sp,-16
    1036:	00b494b3          	sll	s1,s1,a1
    103a:	499d                	li	s3,7
    103c:	4b05                	li	s6,1
    103e:	40011a37          	lui	s4,0x40011
    1042:	5afd                	li	s5,-1
    1044:	013b17b3          	sll	a5,s6,s3
    1048:	8ff1                	and	a5,a5,a2
    104a:	800a0713          	addi	a4,s4,-2048 # 40010800 <_eusrstack+0x2000b800>
    104e:	c7b9                	beqz	a5,109c <i2c_send_byte+0x72>
    1050:	01272823          	sw	s2,16(a4)
    1054:	c632                	sw	a2,12(sp)
    1056:	3f41                	jal	fe6 <i2c_delay>
    1058:	809a2823          	sw	s1,-2032(s4)
    105c:	3769                	jal	fe6 <i2c_delay>
    105e:	809a2a23          	sw	s1,-2028(s4)
    1062:	3751                	jal	fe6 <i2c_delay>
    1064:	19fd                	addi	s3,s3,-1
    1066:	800a0413          	addi	s0,s4,-2048
    106a:	4632                	lw	a2,12(sp)
    106c:	fd599ce3          	bne	s3,s5,1044 <i2c_send_byte+0x1a>
    1070:	812a2823          	sw	s2,-2032(s4)
    1074:	3f8d                	jal	fe6 <i2c_delay>
    1076:	809a2823          	sw	s1,-2032(s4)
    107a:	37b5                	jal	fe6 <i2c_delay>
    107c:	808a2983          	lw	s3,-2040(s4)
    1080:	379d                	jal	fe6 <i2c_delay>
    1082:	809a2a23          	sw	s1,-2028(s4)
    1086:	3785                	jal	fe6 <i2c_delay>
    1088:	812a2823          	sw	s2,-2032(s4)
    108c:	3fa9                	jal	fe6 <i2c_delay>
    108e:	0129f533          	and	a0,s3,s2
    1092:	00153513          	seqz	a0,a0
    1096:	0141                	addi	sp,sp,16
    1098:	8b2ff06f          	j	14a <__riscv_restore_4>
    109c:	01272a23          	sw	s2,20(a4)
    10a0:	bf55                	j	1054 <i2c_send_byte+0x2a>

000010a2 <i2c_stop>:
    10a2:	88eff2ef          	jal	t0,130 <__riscv_save_0>
    10a6:	1141                	addi	sp,sp,-16
    10a8:	4485                	li	s1,1
    10aa:	00b495b3          	sll	a1,s1,a1
    10ae:	c62a                	sw	a0,12(sp)
    10b0:	40011437          	lui	s0,0x40011
    10b4:	80b42823          	sw	a1,-2032(s0) # 40010810 <_eusrstack+0x2000b810>
    10b8:	373d                	jal	fe6 <i2c_delay>
    10ba:	4532                	lw	a0,12(sp)
    10bc:	80040413          	addi	s0,s0,-2048
    10c0:	00a494b3          	sll	s1,s1,a0
    10c4:	c804                	sw	s1,16(s0)
    10c6:	3705                	jal	fe6 <i2c_delay>
    10c8:	0141                	addi	sp,sp,16
    10ca:	88aff06f          	j	154 <__riscv_restore_0>

000010ce <i2c_recv_byte>:
    10ce:	83aff2ef          	jal	t0,108 <__riscv_save_10>
    10d2:	4905                	li	s2,1
    10d4:	00a91ab3          	sll	s5,s2,a0
    10d8:	1141                	addi	sp,sp,-16
    10da:	8b2a                	mv	s6,a0
    10dc:	89b6                	mv	s3,a3
    10de:	00060023          	sb	zero,0(a2)
    10e2:	00b91933          	sll	s2,s2,a1
    10e6:	4a1d                	li	s4,7
    10e8:	40011c37          	lui	s8,0x40011
    10ec:	5bfd                	li	s7,-1
    10ee:	c632                	sw	a2,12(sp)
    10f0:	815c2823          	sw	s5,-2032(s8) # 40010810 <_eusrstack+0x2000b810>
    10f4:	3dcd                	jal	fe6 <i2c_delay>
    10f6:	812c2823          	sw	s2,-2032(s8)
    10fa:	35f5                	jal	fe6 <i2c_delay>
    10fc:	808c2483          	lw	s1,-2040(s8)
    1100:	35dd                	jal	fe6 <i2c_delay>
    1102:	812c2a23          	sw	s2,-2028(s8)
    1106:	35c5                	jal	fe6 <i2c_delay>
    1108:	4632                	lw	a2,12(sp)
    110a:	009af4b3          	and	s1,s5,s1
    110e:	009034b3          	snez	s1,s1
    1112:	221c                	lbu	a5,0(a2)
    1114:	014494b3          	sll	s1,s1,s4
    1118:	1a7d                	addi	s4,s4,-1
    111a:	8cdd                	or	s1,s1,a5
    111c:	a204                	sb	s1,0(a2)
    111e:	800c0413          	addi	s0,s8,-2048
    1122:	fd7a16e3          	bne	s4,s7,10ee <i2c_recv_byte+0x20>
    1126:	016999b3          	sll	s3,s3,s6
    112a:	815c2823          	sw	s5,-2032(s8)
    112e:	3d65                	jal	fe6 <i2c_delay>
    1130:	813c2a23          	sw	s3,-2028(s8)
    1134:	3d4d                	jal	fe6 <i2c_delay>
    1136:	812c2823          	sw	s2,-2032(s8)
    113a:	3575                	jal	fe6 <i2c_delay>
    113c:	812c2a23          	sw	s2,-2028(s8)
    1140:	355d                	jal	fe6 <i2c_delay>
    1142:	813c2823          	sw	s3,-2032(s8)
    1146:	3545                	jal	fe6 <i2c_delay>
    1148:	0141                	addi	sp,sp,16
    114a:	ff7fe06f          	j	140 <__riscv_restore_10>

0000114e <i2c_scan_address>:
    114e:	fe3fe2ef          	jal	t0,130 <__riscv_save_0>
    1152:	1141                	addi	sp,sp,-16
    1154:	842a                	mv	s0,a0
    1156:	84ae                	mv	s1,a1
    1158:	c632                	sw	a2,12(sp)
    115a:	3d69                	jal	ff4 <i2c_start>
    115c:	4632                	lw	a2,12(sp)
    115e:	85a6                	mv	a1,s1
    1160:	8522                	mv	a0,s0
    1162:	0606                	slli	a2,a2,0x1
    1164:	0fe67613          	andi	a2,a2,254
    1168:	35c9                	jal	102a <i2c_send_byte>
    116a:	892a                	mv	s2,a0
    116c:	85a6                	mv	a1,s1
    116e:	8522                	mv	a0,s0
    1170:	3f0d                	jal	10a2 <i2c_stop>
    1172:	854a                	mv	a0,s2
    1174:	0141                	addi	sp,sp,16
    1176:	fdffe06f          	j	154 <__riscv_restore_0>

0000117a <i2c_send_bytes>:
    117a:	f9dfe2ef          	jal	t0,116 <__riscv_save_4>
    117e:	1141                	addi	sp,sp,-16
    1180:	8436                	mv	s0,a3
    1182:	89ba                	mv	s3,a4
    1184:	84aa                	mv	s1,a0
    1186:	892e                	mv	s2,a1
    1188:	c632                	sw	a2,12(sp)
    118a:	8a3e                	mv	s4,a5
    118c:	35a5                	jal	ff4 <i2c_start>
    118e:	4632                	lw	a2,12(sp)
    1190:	85ca                	mv	a1,s2
    1192:	8526                	mv	a0,s1
    1194:	3d59                	jal	102a <i2c_send_byte>
    1196:	99a2                	add	s3,s3,s0
    1198:	01341a63          	bne	s0,s3,11ac <i2c_send_bytes+0x32>
    119c:	000a0563          	beqz	s4,11a6 <i2c_send_bytes+0x2c>
    11a0:	85ca                	mv	a1,s2
    11a2:	8526                	mv	a0,s1
    11a4:	3dfd                	jal	10a2 <i2c_stop>
    11a6:	0141                	addi	sp,sp,16
    11a8:	fa3fe06f          	j	14a <__riscv_restore_4>
    11ac:	2010                	lbu	a2,0(s0)
    11ae:	85ca                	mv	a1,s2
    11b0:	8526                	mv	a0,s1
    11b2:	3da5                	jal	102a <i2c_send_byte>
    11b4:	0405                	addi	s0,s0,1
    11b6:	b7cd                	j	1198 <i2c_send_bytes+0x1e>

000011b8 <i2c_recv_bytes>:
    11b8:	f5ffe2ef          	jal	t0,116 <__riscv_save_4>
    11bc:	1141                	addi	sp,sp,-16
    11be:	89ba                	mv	s3,a4
    11c0:	84aa                	mv	s1,a0
    11c2:	892e                	mv	s2,a1
    11c4:	c632                	sw	a2,12(sp)
    11c6:	8ab6                	mv	s5,a3
    11c8:	8a3e                	mv	s4,a5
    11ca:	352d                	jal	ff4 <i2c_start>
    11cc:	4632                	lw	a2,12(sp)
    11ce:	85ca                	mv	a1,s2
    11d0:	8526                	mv	a0,s1
    11d2:	00166613          	ori	a2,a2,1
    11d6:	3d91                	jal	102a <i2c_send_byte>
    11d8:	4401                	li	s0,0
    11da:	fff98b13          	addi	s6,s3,-1 # ffffdfff <_eusrstack+0xdfff8fff>
    11de:	01341a63          	bne	s0,s3,11f2 <i2c_recv_bytes+0x3a>
    11e2:	000a0563          	beqz	s4,11ec <i2c_recv_bytes+0x34>
    11e6:	85ca                	mv	a1,s2
    11e8:	8526                	mv	a0,s1
    11ea:	3d65                	jal	10a2 <i2c_stop>
    11ec:	0141                	addi	sp,sp,16
    11ee:	f5dfe06f          	j	14a <__riscv_restore_4>
    11f2:	016436b3          	sltu	a3,s0,s6
    11f6:	008a8633          	add	a2,s5,s0
    11fa:	85ca                	mv	a1,s2
    11fc:	8526                	mv	a0,s1
    11fe:	3dc1                	jal	10ce <i2c_recv_byte>
    1200:	0405                	addi	s0,s0,1
    1202:	bff1                	j	11de <i2c_recv_bytes+0x26>

00001204 <i2c_send_recv_bytes>:
    1204:	f05fe2ef          	jal	t0,108 <__riscv_save_10>
    1208:	8436                	mv	s0,a3
    120a:	89ba                	mv	s3,a4
    120c:	84aa                	mv	s1,a0
    120e:	892e                	mv	s2,a1
    1210:	8ab2                	mv	s5,a2
    1212:	8bbe                	mv	s7,a5
    1214:	8a42                	mv	s4,a6
    1216:	8b46                	mv	s6,a7
    1218:	3bf1                	jal	ff4 <i2c_start>
    121a:	8656                	mv	a2,s5
    121c:	85ca                	mv	a1,s2
    121e:	8526                	mv	a0,s1
    1220:	3529                	jal	102a <i2c_send_byte>
    1222:	99a2                	add	s3,s3,s0
    1224:	03341663          	bne	s0,s3,1250 <i2c_send_recv_bytes+0x4c>
    1228:	85ca                	mv	a1,s2
    122a:	8526                	mv	a0,s1
    122c:	33e1                	jal	ff4 <i2c_start>
    122e:	001ae613          	ori	a2,s5,1
    1232:	85ca                	mv	a1,s2
    1234:	8526                	mv	a0,s1
    1236:	3bd5                	jal	102a <i2c_send_byte>
    1238:	4401                	li	s0,0
    123a:	fffa0993          	addi	s3,s4,-1
    123e:	01441f63          	bne	s0,s4,125c <i2c_send_recv_bytes+0x58>
    1242:	000b0563          	beqz	s6,124c <i2c_send_recv_bytes+0x48>
    1246:	85ca                	mv	a1,s2
    1248:	8526                	mv	a0,s1
    124a:	3da1                	jal	10a2 <i2c_stop>
    124c:	ef5fe06f          	j	140 <__riscv_restore_10>
    1250:	2010                	lbu	a2,0(s0)
    1252:	85ca                	mv	a1,s2
    1254:	8526                	mv	a0,s1
    1256:	3bd1                	jal	102a <i2c_send_byte>
    1258:	0405                	addi	s0,s0,1
    125a:	b7e9                	j	1224 <i2c_send_recv_bytes+0x20>
    125c:	013436b3          	sltu	a3,s0,s3
    1260:	008b8633          	add	a2,s7,s0
    1264:	85ca                	mv	a1,s2
    1266:	8526                	mv	a0,s1
    1268:	359d                	jal	10ce <i2c_recv_byte>
    126a:	0405                	addi	s0,s0,1
    126c:	bfc9                	j	123e <i2c_send_recv_bytes+0x3a>

0000126e <GPIO_Init_Small>:
    126e:	4685                	li	a3,1
    1270:	00a696b3          	sll	a3,a3,a0
    1274:	06c2                	slli	a3,a3,0x10
    1276:	00f5f793          	andi	a5,a1,15
    127a:	89c1                	andi	a1,a1,16
    127c:	82c1                	srli	a3,a3,0x10
    127e:	c199                	beqz	a1,1284 <GPIO_Init_Small+0x16>
    1280:	0037e793          	ori	a5,a5,3
    1284:	0ff00713          	li	a4,255
    1288:	02d77a63          	bgeu	a4,a3,12bc <GPIO_Init_Small+0x4e>
    128c:	40011737          	lui	a4,0x40011
    1290:	80472603          	lw	a2,-2044(a4) # 40010804 <_eusrstack+0x2000b804>
    1294:	1561                	addi	a0,a0,-8
    1296:	050a                	slli	a0,a0,0x2
    1298:	473d                	li	a4,15
    129a:	00a71733          	sll	a4,a4,a0
    129e:	fff74713          	not	a4,a4
    12a2:	00a79533          	sll	a0,a5,a0
    12a6:	8f71                	and	a4,a4,a2
    12a8:	0ff00793          	li	a5,255
    12ac:	8d59                	or	a0,a0,a4
    12ae:	00d7fc63          	bgeu	a5,a3,12c6 <GPIO_Init_Small+0x58>
    12b2:	400117b7          	lui	a5,0x40011
    12b6:	80a7a223          	sw	a0,-2044(a5) # 40010804 <_eusrstack+0x2000b804>
    12ba:	8082                	ret
    12bc:	40011737          	lui	a4,0x40011
    12c0:	80072603          	lw	a2,-2048(a4) # 40010800 <_eusrstack+0x2000b800>
    12c4:	bfc9                	j	1296 <GPIO_Init_Small+0x28>
    12c6:	400117b7          	lui	a5,0x40011
    12ca:	80a7a023          	sw	a0,-2048(a5) # 40010800 <_eusrstack+0x2000b800>
    12ce:	8082                	ret

000012d0 <run>:
    12d0:	e31fe2ef          	jal	t0,100 <__riscv_save_12>
    12d4:	715d                	addi	sp,sp,-80
    12d6:	c42a                	sw	a0,8(sp)
    12d8:	842e                	mv	s0,a1
    12da:	8ab6                	mv	s5,a3
    12dc:	8b3a                	mv	s6,a4
    12de:	89be                	mv	s3,a5
    12e0:	8942                	mv	s2,a6
    12e2:	4481                	li	s1,0
    12e4:	4d01                	li	s10,0
    12e6:	4bdd                	li	s7,23
    12e8:	02100c13          	li	s8,33
    12ec:	02300c93          	li	s9,35
    12f0:	02400d93          	li	s11,36
    12f4:	47a2                	lw	a5,8(sp)
    12f6:	463d                	li	a2,15
    12f8:	0ff00513          	li	a0,255
    12fc:	01a78733          	add	a4,a5,s10
    1300:	2314                	lbu	a3,0(a4)
    1302:	45fd                	li	a1,31
    1304:	4861                	li	a6,24
    1306:	28c68e63          	beq	a3,a2,15a2 <run+0x2d2>
    130a:	0ad66663          	bltu	a2,a3,13b6 <run+0xe6>
    130e:	461d                	li	a2,7
    1310:	14c68363          	beq	a3,a2,1456 <run+0x186>
    1314:	06d66063          	bltu	a2,a3,1374 <run+0xa4>
    1318:	460d                	li	a2,3
    131a:	1ec68b63          	beq	a3,a2,1510 <run+0x240>
    131e:	00d66f63          	bltu	a2,a3,133c <run+0x6c>
    1322:	4605                	li	a2,1
    1324:	004d0793          	addi	a5,s10,4
    1328:	12c68063          	beq	a3,a2,1448 <run+0x178>
    132c:	12d67363          	bgeu	a2,a3,1452 <run+0x182>
    1330:	2336                	lhu	a3,2(a4)
    1332:	40011737          	lui	a4,0x40011
    1336:	80d72a23          	sw	a3,-2028(a4) # 40010814 <_eusrstack+0x2000b814>
    133a:	aa21                	j	1452 <run+0x182>
    133c:	4615                	li	a2,5
    133e:	1ac68363          	beq	a3,a2,14e4 <run+0x214>
    1342:	1ed67963          	bgeu	a2,a3,1534 <run+0x264>
    1346:	2334                	lbu	a3,2(a4)
    1348:	3328                	lbu	a0,3(a4)
    134a:	4a05                	li	s4,1
    134c:	c636                	sw	a3,12(sp)
    134e:	65d010ef          	jal	ra,31aa <start_timer_us_u8>
    1352:	46b2                	lw	a3,12(sp)
    1354:	00da1a33          	sll	s4,s4,a3
    1358:	400116b7          	lui	a3,0x40011
    135c:	8086a703          	lw	a4,-2040(a3) # 40010808 <_eusrstack+0x2000b808>
    1360:	01477733          	and	a4,a4,s4
    1364:	10071f63          	bnez	a4,1482 <run+0x1b2>
    1368:	655010ef          	jal	ra,31bc <has_timer_timeout>
    136c:	400116b7          	lui	a3,0x40011
    1370:	d575                	beqz	a0,135c <run+0x8c>
    1372:	aa01                	j	1482 <run+0x1b2>
    1374:	462d                	li	a2,11
    1376:	26c68763          	beq	a3,a2,15e4 <run+0x314>
    137a:	00d66b63          	bltu	a2,a3,1390 <run+0xc0>
    137e:	4625                	li	a2,9
    1380:	24c68e63          	beq	a3,a2,15dc <run+0x30c>
    1384:	10d67e63          	bgeu	a2,a3,14a0 <run+0x1d0>
    1388:	232a                	lhu	a0,2(a4)
    138a:	55d010ef          	jal	ra,30e6 <Delay_Us>
    138e:	a85d                	j	1444 <run+0x174>
    1390:	40011637          	lui	a2,0x40011
    1394:	45b5                	li	a1,13
    1396:	004d0793          	addi	a5,s10,4
    139a:	80060613          	addi	a2,a2,-2048 # 40010800 <_eusrstack+0x2000b800>
    139e:	1cb68063          	beq	a3,a1,155e <run+0x28e>
    13a2:	1cd5fe63          	bgeu	a1,a3,157e <run+0x2ae>
    13a6:	2338                	lbu	a4,2(a4)
    13a8:	4654                	lw	a3,12(a2)
    13aa:	9722                	add	a4,a4,s0
    13ac:	2318                	lbu	a4,0(a4)
    13ae:	9ac1                	andi	a3,a3,-16
    13b0:	8f55                	or	a4,a4,a3
    13b2:	c658                	sw	a4,12(a2)
    13b4:	a879                	j	1452 <run+0x182>
    13b6:	21768463          	beq	a3,s7,15be <run+0x2ee>
    13ba:	04dbe363          	bltu	s7,a3,1400 <run+0x130>
    13be:	464d                	li	a2,19
    13c0:	06c68f63          	beq	a3,a2,143e <run+0x16e>
    13c4:	02d66063          	bltu	a2,a3,13e4 <run+0x114>
    13c8:	4645                	li	a2,17
    13ca:	0d11                	addi	s10,s10,4
    13cc:	02800593          	li	a1,40
    13d0:	00c68763          	beq	a3,a2,13de <run+0x10e>
    13d4:	4591                	li	a1,4
    13d6:	00d67463          	bgeu	a2,a3,13de <run+0x10e>
    13da:	04800593          	li	a1,72
    13de:	2328                	lbu	a0,2(a4)
    13e0:	3579                	jal	126e <GPIO_Init_Small>
    13e2:	bf09                	j	12f4 <run+0x24>
    13e4:	4655                	li	a2,21
    13e6:	20c68363          	beq	a3,a2,15ec <run+0x31c>
    13ea:	45d1                	li	a1,20
    13ec:	04d67a63          	bgeu	a2,a3,1440 <run+0x170>
    13f0:	14fd                	addi	s1,s1,-1
    13f2:	00249793          	slli	a5,s1,0x2
    13f6:	0898                	addi	a4,sp,80
    13f8:	97ba                	add	a5,a5,a4
    13fa:	fc07ad03          	lw	s10,-64(a5)
    13fe:	bddd                	j	12f4 <run+0x24>
    1400:	21868663          	beq	a3,s8,160c <run+0x33c>
    1404:	02dc6263          	bltu	s8,a3,1428 <run+0x158>
    1408:	1eb68e63          	beq	a3,a1,1604 <run+0x334>
    140c:	22d5ec63          	bltu	a1,a3,1644 <run+0x374>
    1410:	ef069be3          	bne	a3,a6,1306 <run+0x36>
    1414:	400116b7          	lui	a3,0x40011
    1418:	80068693          	addi	a3,a3,-2048 # 40010800 <_eusrstack+0x2000b800>
    141c:	4694                	lw	a3,8(a3)
    141e:	2338                	lbu	a4,2(a4)
    1420:	82a1                	srli	a3,a3,0x8
    1422:	9722                	add	a4,a4,s0
    1424:	a314                	sb	a3,0(a4)
    1426:	a839                	j	1444 <run+0x174>
    1428:	23968863          	beq	a3,s9,1658 <run+0x388>
    142c:	2596ee63          	bltu	a3,s9,1688 <run+0x3b8>
    1430:	19b68f63          	beq	a3,s11,15ce <run+0x2fe>
    1434:	eca699e3          	bne	a3,a0,1306 <run+0x36>
    1438:	6161                	addi	sp,sp,80
    143a:	d03fe06f          	j	13c <__riscv_restore_12>
    143e:	45c1                	li	a1,16
    1440:	2328                	lbu	a0,2(a4)
    1442:	3535                	jal	126e <GPIO_Init_Small>
    1444:	0d11                	addi	s10,s10,4
    1446:	b57d                	j	12f4 <run+0x24>
    1448:	2336                	lhu	a3,2(a4)
    144a:	40011737          	lui	a4,0x40011
    144e:	80d72823          	sw	a3,-2032(a4) # 40010810 <_eusrstack+0x2000b810>
    1452:	8d3e                	mv	s10,a5
    1454:	b545                	j	12f4 <run+0x24>
    1456:	3328                	lbu	a0,3(a4)
    1458:	00274a03          	lbu	s4,2(a4)
    145c:	54f010ef          	jal	ra,31aa <start_timer_us_u8>
    1460:	4705                	li	a4,1
    1462:	01471a33          	sll	s4,a4,s4
    1466:	400116b7          	lui	a3,0x40011
    146a:	8086a703          	lw	a4,-2040(a3) # 40010808 <_eusrstack+0x2000b808>
    146e:	01477733          	and	a4,a4,s4
    1472:	eb19                	bnez	a4,1488 <run+0x1b8>
    1474:	400116b7          	lui	a3,0x40011
    1478:	8086a703          	lw	a4,-2040(a3) # 40010808 <_eusrstack+0x2000b808>
    147c:	00ea7733          	and	a4,s4,a4
    1480:	cb11                	beqz	a4,1494 <run+0x1c4>
    1482:	545010ef          	jal	ra,31c6 <reset_timer>
    1486:	bf7d                	j	1444 <run+0x174>
    1488:	535010ef          	jal	ra,31bc <has_timer_timeout>
    148c:	400116b7          	lui	a3,0x40011
    1490:	dd69                	beqz	a0,146a <run+0x19a>
    1492:	b7cd                	j	1474 <run+0x1a4>
    1494:	529010ef          	jal	ra,31bc <has_timer_timeout>
    1498:	400116b7          	lui	a3,0x40011
    149c:	dd71                	beqz	a0,1478 <run+0x1a8>
    149e:	b7d5                	j	1482 <run+0x1b2>
    14a0:	3328                	lbu	a0,3(a4)
    14a2:	00274a03          	lbu	s4,2(a4)
    14a6:	505010ef          	jal	ra,31aa <start_timer_us_u8>
    14aa:	4705                	li	a4,1
    14ac:	01471a33          	sll	s4,a4,s4
    14b0:	400116b7          	lui	a3,0x40011
    14b4:	8086a703          	lw	a4,-2040(a3) # 40010808 <_eusrstack+0x2000b808>
    14b8:	01477733          	and	a4,a4,s4
    14bc:	cf11                	beqz	a4,14d8 <run+0x208>
    14be:	400116b7          	lui	a3,0x40011
    14c2:	8086a703          	lw	a4,-2040(a3) # 40010808 <_eusrstack+0x2000b808>
    14c6:	00ea7733          	and	a4,s4,a4
    14ca:	df45                	beqz	a4,1482 <run+0x1b2>
    14cc:	4f1010ef          	jal	ra,31bc <has_timer_timeout>
    14d0:	400116b7          	lui	a3,0x40011
    14d4:	d57d                	beqz	a0,14c2 <run+0x1f2>
    14d6:	b775                	j	1482 <run+0x1b2>
    14d8:	4e5010ef          	jal	ra,31bc <has_timer_timeout>
    14dc:	400116b7          	lui	a3,0x40011
    14e0:	d971                	beqz	a0,14b4 <run+0x1e4>
    14e2:	bff1                	j	14be <run+0x1ee>
    14e4:	2334                	lbu	a3,2(a4)
    14e6:	3328                	lbu	a0,3(a4)
    14e8:	4a05                	li	s4,1
    14ea:	c636                	sw	a3,12(sp)
    14ec:	4bf010ef          	jal	ra,31aa <start_timer_us_u8>
    14f0:	46b2                	lw	a3,12(sp)
    14f2:	00da1a33          	sll	s4,s4,a3
    14f6:	400116b7          	lui	a3,0x40011
    14fa:	8086a703          	lw	a4,-2040(a3) # 40010808 <_eusrstack+0x2000b808>
    14fe:	01477733          	and	a4,a4,s4
    1502:	d341                	beqz	a4,1482 <run+0x1b2>
    1504:	4b9010ef          	jal	ra,31bc <has_timer_timeout>
    1508:	400116b7          	lui	a3,0x40011
    150c:	d57d                	beqz	a0,14fa <run+0x22a>
    150e:	bf95                	j	1482 <run+0x1b2>
    1510:	400116b7          	lui	a3,0x40011
    1514:	8086a603          	lw	a2,-2040(a3) # 40010808 <_eusrstack+0x2000b808>
    1518:	232c                	lbu	a1,2(a4)
    151a:	3334                	lbu	a3,3(a4)
    151c:	4705                	li	a4,1
    151e:	00b71733          	sll	a4,a4,a1
    1522:	96a2                	add	a3,a3,s0
    1524:	8f71                	and	a4,a4,a2
    1526:	2290                	lbu	a2,0(a3)
    1528:	00e03733          	snez	a4,a4
    152c:	0606                	slli	a2,a2,0x1
    152e:	8f51                	or	a4,a4,a2
    1530:	a298                	sb	a4,0(a3)
    1532:	bf09                	j	1444 <run+0x174>
    1534:	3330                	lbu	a2,3(a4)
    1536:	232c                	lbu	a1,2(a4)
    1538:	9622                	add	a2,a2,s0
    153a:	2218                	lbu	a4,0(a2)
    153c:	00175693          	srli	a3,a4,0x1
    1540:	a214                	sb	a3,0(a2)
    1542:	4685                	li	a3,1
    1544:	00177613          	andi	a2,a4,1
    1548:	40011737          	lui	a4,0x40011
    154c:	00b696b3          	sll	a3,a3,a1
    1550:	80070713          	addi	a4,a4,-2048 # 40010800 <_eusrstack+0x2000b800>
    1554:	c219                	beqz	a2,155a <run+0x28a>
    1556:	cb14                	sw	a3,16(a4)
    1558:	b5f5                	j	1444 <run+0x174>
    155a:	cb54                	sw	a3,20(a4)
    155c:	b5e5                	j	1444 <run+0x174>
    155e:	3334                	lbu	a3,3(a4)
    1560:	232c                	lbu	a1,2(a4)
    1562:	4610                	lw	a2,8(a2)
    1564:	4705                	li	a4,1
    1566:	96a2                	add	a3,a3,s0
    1568:	00b71733          	sll	a4,a4,a1
    156c:	8f71                	and	a4,a4,a2
    156e:	2290                	lbu	a2,0(a3)
    1570:	00e03733          	snez	a4,a4
    1574:	071e                	slli	a4,a4,0x7
    1576:	8205                	srli	a2,a2,0x1
    1578:	8f51                	or	a4,a4,a2
    157a:	a298                	sb	a4,0(a3)
    157c:	bdd9                	j	1452 <run+0x182>
    157e:	332c                	lbu	a1,3(a4)
    1580:	2328                	lbu	a0,2(a4)
    1582:	95a2                	add	a1,a1,s0
    1584:	2194                	lbu	a3,0(a1)
    1586:	00169713          	slli	a4,a3,0x1
    158a:	06e2                	slli	a3,a3,0x18
    158c:	a198                	sb	a4,0(a1)
    158e:	86e1                	srai	a3,a3,0x18
    1590:	4705                	li	a4,1
    1592:	00a71733          	sll	a4,a4,a0
    1596:	0006d463          	bgez	a3,159e <run+0x2ce>
    159a:	ca18                	sw	a4,16(a2)
    159c:	bd5d                	j	1452 <run+0x182>
    159e:	ca58                	sw	a4,20(a2)
    15a0:	bd4d                	j	1452 <run+0x182>
    15a2:	2338                	lbu	a4,2(a4)
    15a4:	400116b7          	lui	a3,0x40011
    15a8:	80c6a603          	lw	a2,-2036(a3) # 4001080c <_eusrstack+0x2000b80c>
    15ac:	9722                	add	a4,a4,s0
    15ae:	2318                	lbu	a4,0(a4)
    15b0:	f0f67613          	andi	a2,a2,-241
    15b4:	0722                	slli	a4,a4,0x8
    15b6:	8f51                	or	a4,a4,a2
    15b8:	80e6a623          	sw	a4,-2036(a3)
    15bc:	b561                	j	1444 <run+0x174>
    15be:	400116b7          	lui	a3,0x40011
    15c2:	80068693          	addi	a3,a3,-2048 # 40010800 <_eusrstack+0x2000b800>
    15c6:	4694                	lw	a3,8(a3)
    15c8:	2338                	lbu	a4,2(a4)
    15ca:	9722                	add	a4,a4,s0
    15cc:	bda1                	j	1424 <run+0x154>
    15ce:	2336                	lhu	a3,2(a4)
    15d0:	4701                	li	a4,0
    15d2:	e6d759e3          	bge	a4,a3,1444 <run+0x174>
    15d6:	0001                	nop
    15d8:	0705                	addi	a4,a4,1
    15da:	bfe5                	j	15d2 <run+0x302>
    15dc:	232a                	lhu	a0,2(a4)
    15de:	375010ef          	jal	ra,3152 <Delay_Ticks>
    15e2:	b58d                	j	1444 <run+0x174>
    15e4:	232a                	lhu	a0,2(a4)
    15e6:	337010ef          	jal	ra,311c <Delay_Ms>
    15ea:	bda9                	j	1444 <run+0x174>
    15ec:	00249693          	slli	a3,s1,0x2
    15f0:	089c                	addi	a5,sp,80
    15f2:	96be                	add	a3,a3,a5
    15f4:	004d0793          	addi	a5,s10,4
    15f8:	fcf6a023          	sw	a5,-64(a3)
    15fc:	00275d03          	lhu	s10,2(a4)
    1600:	0485                	addi	s1,s1,1
    1602:	b9cd                	j	12f4 <run+0x24>
    1604:	3334                	lbu	a3,3(a4)
    1606:	96a2                	add	a3,a3,s0
    1608:	2294                	lbu	a3,0(a3)
    160a:	bf7d                	j	15c8 <run+0x2f8>
    160c:	00092683          	lw	a3,0(s2) # ffffe000 <_eusrstack+0xdfff9000>
    1610:	40011637          	lui	a2,0x40011
    1614:	2338                	lbu	a4,2(a4)
    1616:	80862803          	lw	a6,-2040(a2) # 40010808 <_eusrstack+0x2000b808>
    161a:	4585                	li	a1,1
    161c:	0076f613          	andi	a2,a3,7
    1620:	00c59633          	sll	a2,a1,a2
    1624:	828d                	srli	a3,a3,0x3
    1626:	00e595b3          	sll	a1,a1,a4
    162a:	96da                	add	a3,a3,s6
    162c:	0105f5b3          	and	a1,a1,a6
    1630:	2288                	lbu	a0,0(a3)
    1632:	cd99                	beqz	a1,1650 <run+0x380>
    1634:	8e49                	or	a2,a2,a0
    1636:	a290                	sb	a2,0(a3)
    1638:	00092703          	lw	a4,0(s2)
    163c:	0705                	addi	a4,a4,1
    163e:	00e92023          	sw	a4,0(s2)
    1642:	b509                	j	1444 <run+0x174>
    1644:	00092603          	lw	a2,0(s2)
    1648:	7ff00693          	li	a3,2047
    164c:	8e91                	sub	a3,a3,a2
    164e:	b7c9                	j	1610 <run+0x340>
    1650:	fff64613          	not	a2,a2
    1654:	8e69                	and	a2,a2,a0
    1656:	b7c5                	j	1636 <run+0x366>
    1658:	2330                	lbu	a2,2(a4)
    165a:	0009a703          	lw	a4,0(s3)
    165e:	177d                	addi	a4,a4,-1
    1660:	00e9a023          	sw	a4,0(s3)
    1664:	00375593          	srli	a1,a4,0x3
    1668:	95d6                	add	a1,a1,s5
    166a:	218c                	lbu	a1,0(a1)
    166c:	4685                	li	a3,1
    166e:	8b1d                	andi	a4,a4,7
    1670:	00e69733          	sll	a4,a3,a4
    1674:	00c69633          	sll	a2,a3,a2
    1678:	8f6d                	and	a4,a4,a1
    167a:	400116b7          	lui	a3,0x40011
    167e:	80068693          	addi	a3,a3,-2048 # 40010800 <_eusrstack+0x2000b800>
    1682:	cf11                	beqz	a4,169e <run+0x3ce>
    1684:	ca90                	sw	a2,16(a3)
    1686:	bb7d                	j	1444 <run+0x174>
    1688:	2330                	lbu	a2,2(a4)
    168a:	0009a703          	lw	a4,0(s3)
    168e:	fff70693          	addi	a3,a4,-1
    1692:	7ff00713          	li	a4,2047
    1696:	00d9a023          	sw	a3,0(s3)
    169a:	8f15                	sub	a4,a4,a3
    169c:	b7e1                	j	1664 <run+0x394>
    169e:	cad0                	sw	a2,20(a3)
    16a0:	b355                	j	1444 <run+0x174>

000016a2 <reads_registers>:
    16a2:	818016b7          	lui	a3,0x81801
    16a6:	4701                	li	a4,0
    16a8:	467d                	li	a2,31
    16aa:	06c1                	addi	a3,a3,16
    16ac:	00b76463          	bltu	a4,a1,16b4 <reads_registers+0x12>
    16b0:	4501                	li	a0,0
    16b2:	8082                	ret
    16b4:	00e507b3          	add	a5,a0,a4
    16b8:	239c                	lbu	a5,0(a5)
    16ba:	00f66663          	bltu	a2,a5,16c6 <reads_registers+0x24>
    16be:	00f6d7b3          	srl	a5,a3,a5
    16c2:	8b85                	andi	a5,a5,1
    16c4:	e399                	bnez	a5,16ca <reads_registers+0x28>
    16c6:	070d                	addi	a4,a4,3
    16c8:	b7d5                	j	16ac <reads_registers+0xa>
    16ca:	4505                	li	a0,1
    16cc:	8082                	ret

000016ce <writes_registers>:
    16ce:	8000e6b7          	lui	a3,0x8000e
    16d2:	4701                	li	a4,0
    16d4:	467d                	li	a2,31
    16d6:	06a1                	addi	a3,a3,8
    16d8:	00b76463          	bltu	a4,a1,16e0 <writes_registers+0x12>
    16dc:	4501                	li	a0,0
    16de:	8082                	ret
    16e0:	00e507b3          	add	a5,a0,a4
    16e4:	239c                	lbu	a5,0(a5)
    16e6:	00f66663          	bltu	a2,a5,16f2 <writes_registers+0x24>
    16ea:	00f6d7b3          	srl	a5,a3,a5
    16ee:	8b85                	andi	a5,a5,1
    16f0:	e399                	bnez	a5,16f6 <writes_registers+0x28>
    16f2:	0711                	addi	a4,a4,4
    16f4:	b7d5                	j	16d8 <writes_registers+0xa>
    16f6:	4505                	li	a0,1
    16f8:	8082                	ret

000016fa <reads_pile>:
    16fa:	4701                	li	a4,0
    16fc:	4685                	li	a3,1
    16fe:	00b76463          	bltu	a4,a1,1706 <reads_pile+0xc>
    1702:	4501                	li	a0,0
    1704:	8082                	ret
    1706:	00e507b3          	add	a5,a0,a4
    170a:	239c                	lbu	a5,0(a5)
    170c:	fde78793          	addi	a5,a5,-34
    1710:	0ff7f793          	andi	a5,a5,255
    1714:	00f6f463          	bgeu	a3,a5,171c <reads_pile+0x22>
    1718:	070d                	addi	a4,a4,3
    171a:	b7d5                	j	16fe <reads_pile+0x4>
    171c:	4505                	li	a0,1
    171e:	8082                	ret

00001720 <writes_pile>:
    1720:	4701                	li	a4,0
    1722:	4685                	li	a3,1
    1724:	00b76463          	bltu	a4,a1,172c <writes_pile+0xc>
    1728:	4501                	li	a0,0
    172a:	8082                	ret
    172c:	00e507b3          	add	a5,a0,a4
    1730:	239c                	lbu	a5,0(a5)
    1732:	1781                	addi	a5,a5,-32
    1734:	0ff7f793          	andi	a5,a5,255
    1738:	00f6f463          	bgeu	a3,a5,1740 <writes_pile+0x20>
    173c:	070d                	addi	a4,a4,3
    173e:	b7dd                	j	1724 <writes_pile+0x4>
    1740:	4505                	li	a0,1
    1742:	8082                	ret

00001744 <USBFS_RCC_Init>:
    1744:	9edfe2ef          	jal	t0,130 <__riscv_save_0>
    1748:	4509                	li	a0,2
    174a:	444010ef          	jal	ra,2b8e <RCC_USBCLKConfig>
    174e:	4585                	li	a1,1
    1750:	6505                	lui	a0,0x1
    1752:	526010ef          	jal	ra,2c78 <RCC_AHBPeriphClockCmd>
    1756:	9fffe06f          	j	154 <__riscv_restore_0>

0000175a <USBFS_Device_Endp_Init>:
    175a:	500007b7          	lui	a5,0x50000
    175e:	04000713          	li	a4,64
    1762:	a7d8                	sb	a4,12(a5)
    1764:	04800713          	li	a4,72
    1768:	b7d8                	sb	a4,13(a5)
    176a:	86418713          	addi	a4,gp,-1948 # 200000e4 <USBFS_EP0_Buf>
    176e:	cb98                	sw	a4,16(a5)
    1770:	8a418713          	addi	a4,gp,-1884 # 20000124 <USBFS_EP1_Buf>
    1774:	cbd8                	sw	a4,20(a5)
    1776:	8e418713          	addi	a4,gp,-1820 # 20000164 <USBFS_EP2_Buf>
    177a:	cf98                	sw	a4,24(a5)
    177c:	92418713          	addi	a4,gp,-1756 # 200001a4 <USBFS_EP3_Buf>
    1780:	cfd8                	sw	a4,28(a5)
    1782:	020789a3          	sb	zero,51(a5) # 50000033 <_eusrstack+0x2fffb033>
    1786:	02078da3          	sb	zero,59(a5)
    178a:	02079a23          	sh	zero,52(a5)
    178e:	02079e23          	sh	zero,60(a5)
    1792:	4709                	li	a4,2
    1794:	02e78923          	sb	a4,50(a5)
    1798:	02e78b23          	sb	a4,54(a5)
    179c:	02e78f23          	sb	a4,62(a5)
    17a0:	82418793          	addi	a5,gp,-2012 # 200000a4 <USBFS_Endp_Busy>
    17a4:	00078023          	sb	zero,0(a5)
    17a8:	000780a3          	sb	zero,1(a5)
    17ac:	00078123          	sb	zero,2(a5)
    17b0:	000781a3          	sb	zero,3(a5)
    17b4:	00078223          	sb	zero,4(a5)
    17b8:	000782a3          	sb	zero,5(a5)
    17bc:	00078323          	sb	zero,6(a5)
    17c0:	000783a3          	sb	zero,7(a5)
    17c4:	8082                	ret

000017c6 <USBFS_Device_Init>:
    17c6:	96bfe2ef          	jal	t0,130 <__riscv_save_0>
    17ca:	50000437          	lui	s0,0x50000
    17ce:	4799                	li	a5,6
    17d0:	a01c                	sb	a5,0(s0)
    17d2:	c51d                	beqz	a0,1800 <USBFS_Device_Init+0x3a>
    17d4:	4529                	li	a0,10
    17d6:	111010ef          	jal	ra,30e6 <Delay_Us>
    17da:	479d                	li	a5,7
    17dc:	00040023          	sb	zero,0(s0) # 50000000 <_eusrstack+0x2fffb000>
    17e0:	a03c                	sb	a5,2(s0)
    17e2:	02900793          	li	a5,41
    17e6:	a01c                	sb	a5,0(s0)
    17e8:	3f8d                	jal	175a <USBFS_Device_Endp_Init>
    17ea:	f8100793          	li	a5,-127
    17ee:	b01c                	sb	a5,1(s0)
    17f0:	08000737          	lui	a4,0x8000
    17f4:	e000e7b7          	lui	a5,0xe000e
    17f8:	10e7a223          	sw	a4,260(a5) # e000e104 <_eusrstack+0xc0009104>
    17fc:	959fe06f          	j	154 <__riscv_restore_0>
    1800:	4529                	li	a0,10
    1802:	0e5010ef          	jal	ra,30e6 <Delay_Us>
    1806:	e000e7b7          	lui	a5,0xe000e
    180a:	00040023          	sb	zero,0(s0)
    180e:	08000737          	lui	a4,0x8000
    1812:	18e7a223          	sw	a4,388(a5) # e000e184 <_eusrstack+0xc0009184>
    1816:	0000100f          	fence.i
    181a:	b7cd                	j	17fc <USBFS_Device_Init+0x36>

0000181c <USBFS_Endp_DataUp>:
    181c:	fff50793          	addi	a5,a0,-1 # fff <i2c_start+0xb>
    1820:	0ff7f793          	andi	a5,a5,255
    1824:	4819                	li	a6,6
    1826:	0cf86d63          	bltu	a6,a5,1900 <USBFS_Endp_DataUp+0xe4>
    182a:	8edfe2ef          	jal	t0,116 <__riscv_save_4>
    182e:	82418793          	addi	a5,gp,-2012 # 200000a4 <USBFS_Endp_Busy>
    1832:	97aa                	add	a5,a5,a0
    1834:	239c                	lbu	a5,0(a5)
    1836:	82418493          	addi	s1,gp,-2012 # 200000a4 <USBFS_Endp_Busy>
    183a:	4705                	li	a4,1
    183c:	0ff7f793          	andi	a5,a5,255
    1840:	ebcd                	bnez	a5,18f2 <USBFS_Endp_DataUp+0xd6>
    1842:	4785                	li	a5,1
    1844:	00f50563          	beq	a0,a5,184e <USBFS_Endp_DataUp+0x32>
    1848:	4711                	li	a4,4
    184a:	00e51c63          	bne	a0,a4,1862 <USBFS_Endp_DataUp+0x46>
    184e:	500007b7          	lui	a5,0x50000
    1852:	27dc                	lbu	a5,12(a5)
    1854:	4705                	li	a4,1
    1856:	0ff7f793          	andi	a5,a5,255
    185a:	02e51e63          	bne	a0,a4,1896 <USBFS_Endp_DataUp+0x7a>
    185e:	8391                	srli	a5,a5,0x4
    1860:	a81d                	j	1896 <USBFS_Endp_DataUp+0x7a>
    1862:	ffe50713          	addi	a4,a0,-2
    1866:	0ff77713          	andi	a4,a4,255
    186a:	00e7e963          	bltu	a5,a4,187c <USBFS_Endp_DataUp+0x60>
    186e:	500007b7          	lui	a5,0x50000
    1872:	37dc                	lbu	a5,13(a5)
    1874:	470d                	li	a4,3
    1876:	0ff7f793          	andi	a5,a5,255
    187a:	b7c5                	j	185a <USBFS_Endp_DataUp+0x3e>
    187c:	ffb50713          	addi	a4,a0,-5
    1880:	0ff77713          	andi	a4,a4,255
    1884:	04e7e063          	bltu	a5,a4,18c4 <USBFS_Endp_DataUp+0xa8>
    1888:	500007b7          	lui	a5,0x50000
    188c:	27fc                	lbu	a5,14(a5)
    188e:	0ff7f793          	andi	a5,a5,255
    1892:	fd0506e3          	beq	a0,a6,185e <USBFS_Endp_DataUp+0x42>
    1896:	0047f813          	andi	a6,a5,4
    189a:	4701                	li	a4,0
    189c:	04080b63          	beqz	a6,18f2 <USBFS_Endp_DataUp+0xd6>
    18a0:	14000437          	lui	s0,0x14000
    18a4:	0411                	addi	s0,s0,4
    18a6:	942a                	add	s0,s0,a0
    18a8:	8ba1                	andi	a5,a5,8
    18aa:	89b2                	mv	s3,a2
    18ac:	892a                	mv	s2,a0
    18ae:	040a                	slli	s0,s0,0x2
    18b0:	c385                	beqz	a5,18d0 <USBFS_Endp_DataUp+0xb4>
    18b2:	4008                	lw	a0,0(s0)
    18b4:	200007b7          	lui	a5,0x20000
    18b8:	04078793          	addi	a5,a5,64 # 20000040 <impure_data+0x20>
    18bc:	953e                	add	a0,a0,a5
    18be:	56f010ef          	jal	ra,362c <memcpy>
    18c2:	a819                	j	18d8 <USBFS_Endp_DataUp+0xbc>
    18c4:	500007b7          	lui	a5,0x50000
    18c8:	37fc                	lbu	a5,15(a5)
    18ca:	0ff7f793          	andi	a5,a5,255
    18ce:	b7e1                	j	1896 <USBFS_Endp_DataUp+0x7a>
    18d0:	e685                	bnez	a3,18f8 <USBFS_Endp_DataUp+0xdc>
    18d2:	05c2                	slli	a1,a1,0x10
    18d4:	81c1                	srli	a1,a1,0x10
    18d6:	c00c                	sw	a1,0(s0)
    18d8:	03341023          	sh	s3,32(s0) # 14000020 <_data_lma+0x13ffbbf0>
    18dc:	02244783          	lbu	a5,34(s0)
    18e0:	01248533          	add	a0,s1,s2
    18e4:	4701                	li	a4,0
    18e6:	0fc7f793          	andi	a5,a5,252
    18ea:	02f40123          	sb	a5,34(s0)
    18ee:	4785                	li	a5,1
    18f0:	a11c                	sb	a5,0(a0)
    18f2:	853a                	mv	a0,a4
    18f4:	857fe06f          	j	14a <__riscv_restore_4>
    18f8:	4008                	lw	a0,0(s0)
    18fa:	200007b7          	lui	a5,0x20000
    18fe:	bf7d                	j	18bc <USBFS_Endp_DataUp+0xa0>
    1900:	4705                	li	a4,1
    1902:	853a                	mv	a0,a4
    1904:	8082                	ret

00001906 <USBFS_IRQHandler>:
    1906:	1101                	addi	sp,sp,-32
    1908:	ce22                	sw	s0,28(sp)
    190a:	cc26                	sw	s1,24(sp)
    190c:	ca4a                	sw	s2,20(sp)
    190e:	c84e                	sw	s3,16(sp)
    1910:	c652                	sw	s4,12(sp)
    1912:	c456                	sw	s5,8(sp)
    1914:	50000437          	lui	s0,0x50000
    1918:	2078                	lbu	a4,6(s0)
    191a:	307c                	lbu	a5,7(s0)
    191c:	0ff77713          	andi	a4,a4,255
    1920:	00277693          	andi	a3,a4,2
    1924:	58068363          	beqz	a3,1eaa <USBFS_IRQHandler+0x5a4>
    1928:	0ff7f793          	andi	a5,a5,255
    192c:	0307f713          	andi	a4,a5,48
    1930:	02000593          	li	a1,32
    1934:	04b70063          	beq	a4,a1,1974 <USBFS_IRQHandler+0x6e>
    1938:	03000693          	li	a3,48
    193c:	18d70c63          	beq	a4,a3,1ad4 <USBFS_IRQHandler+0x1ce>
    1940:	ef79                	bnez	a4,1a1e <USBFS_IRQHandler+0x118>
    1942:	03f7f713          	andi	a4,a5,63
    1946:	12070963          	beqz	a4,1a78 <USBFS_IRQHandler+0x172>
    194a:	4789                	li	a5,2
    194c:	0cf71963          	bne	a4,a5,1a1e <USBFS_IRQHandler+0x118>
    1950:	03b44783          	lbu	a5,59(s0) # 5000003b <_eusrstack+0x2fffb03b>
    1954:	0047c793          	xori	a5,a5,4
    1958:	02f40da3          	sb	a5,59(s0)
    195c:	4408                	lw	a0,8(s0)
    195e:	0542                	slli	a0,a0,0x10
    1960:	8141                	srli	a0,a0,0x10
    1962:	00f000ef          	jal	ra,2170 <usbSerial_on_ep2_out>
    1966:	03b44783          	lbu	a5,59(s0)
    196a:	0fc7f793          	andi	a5,a5,252
    196e:	02f40da3          	sb	a5,59(s0)
    1972:	a075                	j	1a1e <USBFS_IRQHandler+0x118>
    1974:	03f7f793          	andi	a5,a5,63
    1978:	02100693          	li	a3,33
    197c:	0ad78663          	beq	a5,a3,1a28 <USBFS_IRQHandler+0x122>
    1980:	02300693          	li	a3,35
    1984:	0cd78563          	beq	a5,a3,1a4e <USBFS_IRQHandler+0x148>
    1988:	08e79b63          	bne	a5,a4,1a1e <USBFS_IRQHandler+0x118>
    198c:	83018793          	addi	a5,gp,-2000 # 200000b0 <USBFS_SetupReqLen>
    1990:	239e                	lhu	a5,0(a5)
    1992:	83018493          	addi	s1,gp,-2000 # 200000b0 <USBFS_SetupReqLen>
    1996:	07c2                	slli	a5,a5,0x10
    1998:	83c1                	srli	a5,a5,0x10
    199a:	e781                	bnez	a5,19a2 <USBFS_IRQHandler+0x9c>
    199c:	4791                	li	a5,4
    199e:	02f409a3          	sb	a5,51(s0)
    19a2:	8321c783          	lbu	a5,-1998(gp) # 200000b2 <USBFS_SetupReqType>
    19a6:	0607f793          	andi	a5,a5,96
    19aa:	ebb5                	bnez	a5,1a1e <USBFS_IRQHandler+0x118>
    19ac:	82c1c783          	lbu	a5,-2004(gp) # 200000ac <USBFS_SetupReqCode>
    19b0:	4715                	li	a4,5
    19b2:	0ff7f793          	andi	a5,a5,255
    19b6:	04e78b63          	beq	a5,a4,1a0c <USBFS_IRQHandler+0x106>
    19ba:	4719                	li	a4,6
    19bc:	06e79163          	bne	a5,a4,1a1e <USBFS_IRQHandler+0x118>
    19c0:	209e                	lhu	a5,0(s1)
    19c2:	03f00713          	li	a4,63
    19c6:	04000413          	li	s0,64
    19ca:	00f76563          	bltu	a4,a5,19d4 <USBFS_IRQHandler+0xce>
    19ce:	2082                	lhu	s0,0(s1)
    19d0:	0442                	slli	s0,s0,0x10
    19d2:	8041                	srli	s0,s0,0x10
    19d4:	83818913          	addi	s2,gp,-1992 # 200000b8 <pUSBFS_Descr>
    19d8:	00092983          	lw	s3,0(s2)
    19dc:	8622                	mv	a2,s0
    19de:	85ce                	mv	a1,s3
    19e0:	86418513          	addi	a0,gp,-1948 # 200000e4 <USBFS_EP0_Buf>
    19e4:	449010ef          	jal	ra,362c <memcpy>
    19e8:	209e                	lhu	a5,0(s1)
    19ea:	99a2                	add	s3,s3,s0
    19ec:	01392023          	sw	s3,0(s2)
    19f0:	8f81                	sub	a5,a5,s0
    19f2:	07c2                	slli	a5,a5,0x10
    19f4:	83c1                	srli	a5,a5,0x10
    19f6:	a09e                	sh	a5,0(s1)
    19f8:	500007b7          	lui	a5,0x50000
    19fc:	bb82                	sh	s0,48(a5)
    19fe:	0327c703          	lbu	a4,50(a5) # 50000032 <_eusrstack+0x2fffb032>
    1a02:	00474713          	xori	a4,a4,4
    1a06:	02e78923          	sb	a4,50(a5)
    1a0a:	a811                	j	1a1e <USBFS_IRQHandler+0x118>
    1a0c:	50000737          	lui	a4,0x50000
    1a10:	333c                	lbu	a5,3(a4)
    1a12:	8201c683          	lbu	a3,-2016(gp) # 200000a0 <_edata>
    1a16:	0807f793          	andi	a5,a5,128
    1a1a:	8fd5                	or	a5,a5,a3
    1a1c:	b33c                	sb	a5,3(a4)
    1a1e:	500007b7          	lui	a5,0x50000
    1a22:	4709                	li	a4,2
    1a24:	a3f8                	sb	a4,6(a5)
    1a26:	a959                	j	1ebc <USBFS_IRQHandler+0x5b6>
    1a28:	03644783          	lbu	a5,54(s0)
    1a2c:	0047c793          	xori	a5,a5,4
    1a30:	02f40b23          	sb	a5,54(s0)
    1a34:	03644783          	lbu	a5,54(s0)
    1a38:	0fc7f793          	andi	a5,a5,252
    1a3c:	0027e793          	ori	a5,a5,2
    1a40:	02f40b23          	sb	a5,54(s0)
    1a44:	82418793          	addi	a5,gp,-2012 # 200000a4 <USBFS_Endp_Busy>
    1a48:	000780a3          	sb	zero,1(a5) # 50000001 <_eusrstack+0x2fffb001>
    1a4c:	bfc9                	j	1a1e <USBFS_IRQHandler+0x118>
    1a4e:	03e44783          	lbu	a5,62(s0)
    1a52:	0047c793          	xori	a5,a5,4
    1a56:	02f40f23          	sb	a5,62(s0)
    1a5a:	03e44783          	lbu	a5,62(s0)
    1a5e:	0fc7f793          	andi	a5,a5,252
    1a62:	0027e793          	ori	a5,a5,2
    1a66:	02f40f23          	sb	a5,62(s0)
    1a6a:	82418793          	addi	a5,gp,-2012 # 200000a4 <USBFS_Endp_Busy>
    1a6e:	000781a3          	sb	zero,3(a5)
    1a72:	76c000ef          	jal	ra,21de <usbSerial_on_ep3_in_done>
    1a76:	b765                	j	1a1e <USBFS_IRQHandler+0x118>
    1a78:	4418                	lw	a4,8(s0)
    1a7a:	0407f793          	andi	a5,a5,64
    1a7e:	d3c5                	beqz	a5,1a1e <USBFS_IRQHandler+0x118>
    1a80:	8321c783          	lbu	a5,-1998(gp) # 200000b2 <USBFS_SetupReqType>
    1a84:	83018713          	addi	a4,gp,-2000 # 200000b0 <USBFS_SetupReqLen>
    1a88:	0607f793          	andi	a5,a5,96
    1a8c:	cb95                	beqz	a5,1ac0 <USBFS_IRQHandler+0x1ba>
    1a8e:	00071023          	sh	zero,0(a4) # 50000000 <_eusrstack+0x2fffb000>
    1a92:	82c1c783          	lbu	a5,-2004(gp) # 200000ac <USBFS_SetupReqCode>
    1a96:	02f59563          	bne	a1,a5,1ac0 <USBFS_IRQHandler+0x1ba>
    1a9a:	200006b7          	lui	a3,0x20000
    1a9e:	4781                	li	a5,0
    1aa0:	86418613          	addi	a2,gp,-1948 # 200000e4 <USBFS_EP0_Buf>
    1aa4:	08068693          	addi	a3,a3,128 # 20000080 <g_line_coding>
    1aa8:	459d                	li	a1,7
    1aaa:	00f60533          	add	a0,a2,a5
    1aae:	00054803          	lbu	a6,0(a0)
    1ab2:	00f68533          	add	a0,a3,a5
    1ab6:	0785                	addi	a5,a5,1
    1ab8:	01050023          	sb	a6,0(a0)
    1abc:	feb797e3          	bne	a5,a1,1aaa <USBFS_IRQHandler+0x1a4>
    1ac0:	231e                	lhu	a5,0(a4)
    1ac2:	07c2                	slli	a5,a5,0x10
    1ac4:	83c1                	srli	a5,a5,0x10
    1ac6:	ffa1                	bnez	a5,1a1e <USBFS_IRQHandler+0x118>
    1ac8:	500007b7          	lui	a5,0x50000
    1acc:	02079823          	sh	zero,48(a5) # 50000030 <_eusrstack+0x2fffb030>
    1ad0:	4711                	li	a4,4
    1ad2:	bf15                	j	1a06 <USBFS_IRQHandler+0x100>
    1ad4:	4799                	li	a5,6
    1ad6:	02f40923          	sb	a5,50(s0)
    1ada:	02f409a3          	sb	a5,51(s0)
    1ade:	86418693          	addi	a3,gp,-1948 # 200000e4 <USBFS_EP0_Buf>
    1ae2:	229c                	lbu	a5,0(a3)
    1ae4:	83218613          	addi	a2,gp,-1998 # 200000b2 <USBFS_SetupReqType>
    1ae8:	a21c                	sb	a5,0(a2)
    1aea:	329c                	lbu	a5,1(a3)
    1aec:	0066d803          	lhu	a6,6(a3)
    1af0:	82c18713          	addi	a4,gp,-2004 # 200000ac <USBFS_SetupReqCode>
    1af4:	a31c                	sb	a5,0(a4)
    1af6:	0026d883          	lhu	a7,2(a3)
    1afa:	83018793          	addi	a5,gp,-2000 # 200000b0 <USBFS_SetupReqLen>
    1afe:	01079023          	sh	a6,0(a5)
    1b02:	83418813          	addi	a6,gp,-1996 # 200000b4 <USBFS_SetupReqValue>
    1b06:	01181023          	sh	a7,0(a6)
    1b0a:	0046d883          	lhu	a7,4(a3)
    1b0e:	82e18813          	addi	a6,gp,-2002 # 200000ae <USBFS_SetupReqIndex>
    1b12:	01181023          	sh	a7,0(a6)
    1b16:	00064803          	lbu	a6,0(a2)
    1b1a:	83018913          	addi	s2,gp,-2000 # 200000b0 <USBFS_SetupReqLen>
    1b1e:	83218993          	addi	s3,gp,-1998 # 200000b2 <USBFS_SetupReqType>
    1b22:	06087813          	andi	a6,a6,96
    1b26:	86418613          	addi	a2,gp,-1948 # 200000e4 <USBFS_EP0_Buf>
    1b2a:	83418793          	addi	a5,gp,-1996 # 200000b4 <USBFS_SetupReqValue>
    1b2e:	82e18693          	addi	a3,gp,-2002 # 200000ae <USBFS_SetupReqIndex>
    1b32:	0a080463          	beqz	a6,1bda <USBFS_IRQHandler+0x2d4>
    1b36:	0009c783          	lbu	a5,0(s3)
    1b3a:	83818493          	addi	s1,gp,-1992 # 200000b8 <pUSBFS_Descr>
    1b3e:	0207f793          	andi	a5,a5,32
    1b42:	c3c9                	beqz	a5,1bc4 <USBFS_IRQHandler+0x2be>
    1b44:	231c                	lbu	a5,0(a4)
    1b46:	02100713          	li	a4,33
    1b4a:	0ff7f793          	andi	a5,a5,255
    1b4e:	06e78563          	beq	a5,a4,1bb8 <USBFS_IRQHandler+0x2b2>
    1b52:	04f76b63          	bltu	a4,a5,1ba8 <USBFS_IRQHandler+0x2a2>
    1b56:	4401                	li	s0,0
    1b58:	00b78463          	beq	a5,a1,1b60 <USBFS_IRQHandler+0x25a>
    1b5c:	0ff00413          	li	s0,255
    1b60:	00095783          	lhu	a5,0(s2)
    1b64:	03f00713          	li	a4,63
    1b68:	04000a13          	li	s4,64
    1b6c:	00f76763          	bltu	a4,a5,1b7a <USBFS_IRQHandler+0x274>
    1b70:	00095a03          	lhu	s4,0(s2)
    1b74:	0a42                	slli	s4,s4,0x10
    1b76:	010a5a13          	srli	s4,s4,0x10
    1b7a:	0004aa83          	lw	s5,0(s1) # ffffe000 <_eusrstack+0xdfff9000>
    1b7e:	8652                	mv	a2,s4
    1b80:	86418513          	addi	a0,gp,-1948 # 200000e4 <USBFS_EP0_Buf>
    1b84:	85d6                	mv	a1,s5
    1b86:	9a56                	add	s4,s4,s5
    1b88:	2a5010ef          	jal	ra,362c <memcpy>
    1b8c:	0144a023          	sw	s4,0(s1)
    1b90:	0ff00793          	li	a5,255
    1b94:	10f41563          	bne	s0,a5,1c9e <USBFS_IRQHandler+0x398>
    1b98:	500007b7          	lui	a5,0x50000
    1b9c:	471d                	li	a4,7
    1b9e:	02e78923          	sb	a4,50(a5) # 50000032 <_eusrstack+0x2fffb032>
    1ba2:	02e789a3          	sb	a4,51(a5)
    1ba6:	bda5                	j	1a1e <USBFS_IRQHandler+0x118>
    1ba8:	02300713          	li	a4,35
    1bac:	0ff00413          	li	s0,255
    1bb0:	faf768e3          	bltu	a4,a5,1b60 <USBFS_IRQHandler+0x25a>
    1bb4:	4401                	li	s0,0
    1bb6:	b76d                	j	1b60 <USBFS_IRQHandler+0x25a>
    1bb8:	200007b7          	lui	a5,0x20000
    1bbc:	08078793          	addi	a5,a5,128 # 20000080 <g_line_coding>
    1bc0:	c09c                	sw	a5,0(s1)
    1bc2:	bfcd                	j	1bb4 <USBFS_IRQHandler+0x2ae>
    1bc4:	0009c403          	lbu	s0,0(s3)
    1bc8:	8019                	srli	s0,s0,0x6
    1bca:	00144413          	xori	s0,s0,1
    1bce:	8805                	andi	s0,s0,1
    1bd0:	40800433          	neg	s0,s0
    1bd4:	0ff47413          	andi	s0,s0,255
    1bd8:	b761                	j	1b60 <USBFS_IRQHandler+0x25a>
    1bda:	2318                	lbu	a4,0(a4)
    1bdc:	45ad                	li	a1,11
    1bde:	0ff77713          	andi	a4,a4,255
    1be2:	fae5ebe3          	bltu	a1,a4,1b98 <USBFS_IRQHandler+0x292>
    1be6:	6591                	lui	a1,0x4
    1be8:	070a                	slli	a4,a4,0x2
    1bea:	1fc58593          	addi	a1,a1,508 # 41fc <_read+0x1c>
    1bee:	972e                	add	a4,a4,a1
    1bf0:	4318                	lw	a4,0(a4)
    1bf2:	8702                	jr	a4
    1bf4:	239a                	lhu	a4,0(a5)
    1bf6:	4689                	li	a3,2
    1bf8:	8321                	srli	a4,a4,0x8
    1bfa:	83818493          	addi	s1,gp,-1992 # 200000b8 <pUSBFS_Descr>
    1bfe:	02d70663          	beq	a4,a3,1c2a <USBFS_IRQHandler+0x324>
    1c02:	460d                	li	a2,3
    1c04:	02c70e63          	beq	a4,a2,1c40 <USBFS_IRQHandler+0x33a>
    1c08:	4785                	li	a5,1
    1c0a:	04f71663          	bne	a4,a5,1c56 <USBFS_IRQHandler+0x350>
    1c0e:	6791                	lui	a5,0x4
    1c10:	27078713          	addi	a4,a5,624 # 4270 <MyDevDescr>
    1c14:	2707c783          	lbu	a5,624(a5)
    1c18:	c098                	sw	a4,0(s1)
    1c1a:	4401                	li	s0,0
    1c1c:	00095703          	lhu	a4,0(s2)
    1c20:	f4e7f0e3          	bgeu	a5,a4,1b60 <USBFS_IRQHandler+0x25a>
    1c24:	00f91023          	sh	a5,0(s2)
    1c28:	bf25                	j	1b60 <USBFS_IRQHandler+0x25a>
    1c2a:	6711                	lui	a4,0x4
    1c2c:	22c70713          	addi	a4,a4,556 # 422c <MyCfgDescr>
    1c30:	333c                	lbu	a5,3(a4)
    1c32:	c098                	sw	a4,0(s1)
    1c34:	2338                	lbu	a4,2(a4)
    1c36:	07a2                	slli	a5,a5,0x8
    1c38:	97ba                	add	a5,a5,a4
    1c3a:	07c2                	slli	a5,a5,0x10
    1c3c:	83c1                	srli	a5,a5,0x10
    1c3e:	bff1                	j	1c1a <USBFS_IRQHandler+0x314>
    1c40:	239e                	lhu	a5,0(a5)
    1c42:	4605                	li	a2,1
    1c44:	0ff7f793          	andi	a5,a5,255
    1c48:	02c78163          	beq	a5,a2,1c6a <USBFS_IRQHandler+0x364>
    1c4c:	cb89                	beqz	a5,1c5e <USBFS_IRQHandler+0x358>
    1c4e:	02d78563          	beq	a5,a3,1c78 <USBFS_IRQHandler+0x372>
    1c52:	02e78a63          	beq	a5,a4,1c86 <USBFS_IRQHandler+0x380>
    1c56:	4781                	li	a5,0
    1c58:	0ff00413          	li	s0,255
    1c5c:	b7c1                	j	1c1c <USBFS_IRQHandler+0x316>
    1c5e:	81818713          	addi	a4,gp,-2024 # 20000098 <MyLangDescr>
    1c62:	c098                	sw	a4,0(s1)
    1c64:	8181c783          	lbu	a5,-2024(gp) # 20000098 <MyLangDescr>
    1c68:	bf4d                	j	1c1a <USBFS_IRQHandler+0x314>
    1c6a:	6791                	lui	a5,0x4
    1c6c:	28478713          	addi	a4,a5,644 # 4284 <MyManuInfo>
    1c70:	c098                	sw	a4,0(s1)
    1c72:	2847c783          	lbu	a5,644(a5)
    1c76:	b755                	j	1c1a <USBFS_IRQHandler+0x314>
    1c78:	6791                	lui	a5,0x4
    1c7a:	29478713          	addi	a4,a5,660 # 4294 <MyProdInfo>
    1c7e:	c098                	sw	a4,0(s1)
    1c80:	2947c783          	lbu	a5,660(a5)
    1c84:	bf59                	j	1c1a <USBFS_IRQHandler+0x314>
    1c86:	6791                	lui	a5,0x4
    1c88:	2ac78713          	addi	a4,a5,684 # 42ac <MySerNumInfo>
    1c8c:	c098                	sw	a4,0(s1)
    1c8e:	2ac7c783          	lbu	a5,684(a5)
    1c92:	b761                	j	1c1a <USBFS_IRQHandler+0x314>
    1c94:	239e                	lhu	a5,0(a5)
    1c96:	0ff7f793          	andi	a5,a5,255
    1c9a:	82f18023          	sb	a5,-2016(gp) # 200000a0 <_edata>
    1c9e:	0009c783          	lbu	a5,0(s3)
    1ca2:	07e2                	slli	a5,a5,0x18
    1ca4:	87e1                	srai	a5,a5,0x18
    1ca6:	1e07d863          	bgez	a5,1e96 <USBFS_IRQHandler+0x590>
    1caa:	00095703          	lhu	a4,0(s2)
    1cae:	04000793          	li	a5,64
    1cb2:	00e7e663          	bltu	a5,a4,1cbe <USBFS_IRQHandler+0x3b8>
    1cb6:	00095783          	lhu	a5,0(s2)
    1cba:	07c2                	slli	a5,a5,0x10
    1cbc:	83c1                	srli	a5,a5,0x10
    1cbe:	00095703          	lhu	a4,0(s2)
    1cc2:	8f1d                	sub	a4,a4,a5
    1cc4:	0742                	slli	a4,a4,0x10
    1cc6:	8341                	srli	a4,a4,0x10
    1cc8:	00e91023          	sh	a4,0(s2)
    1ccc:	50000737          	lui	a4,0x50000
    1cd0:	bb1e                	sh	a5,48(a4)
    1cd2:	4791                	li	a5,4
    1cd4:	02f70923          	sb	a5,50(a4) # 50000032 <_eusrstack+0x2fffb032>
    1cd8:	b399                	j	1a1e <USBFS_IRQHandler+0x118>
    1cda:	8211c783          	lbu	a5,-2015(gp) # 200000a1 <USBFS_DevConfig>
    1cde:	a21c                	sb	a5,0(a2)
    1ce0:	00095703          	lhu	a4,0(s2)
    1ce4:	4785                	li	a5,1
    1ce6:	fae7fce3          	bgeu	a5,a4,1c9e <USBFS_IRQHandler+0x398>
    1cea:	00f91023          	sh	a5,0(s2)
    1cee:	bf45                	j	1c9e <USBFS_IRQHandler+0x398>
    1cf0:	239e                	lhu	a5,0(a5)
    1cf2:	0ff7f793          	andi	a5,a5,255
    1cf6:	82f180a3          	sb	a5,-2015(gp) # 200000a1 <USBFS_DevConfig>
    1cfa:	4705                	li	a4,1
    1cfc:	82e18123          	sb	a4,-2014(gp) # 200000a2 <USBFS_DevEnumStatus>
    1d00:	bf79                	j	1c9e <USBFS_IRQHandler+0x398>
    1d02:	0009c703          	lbu	a4,0(s3)
    1d06:	8b7d                	andi	a4,a4,31
    1d08:	ef11                	bnez	a4,1d24 <USBFS_IRQHandler+0x41e>
    1d0a:	239e                	lhu	a5,0(a5)
    1d0c:	4705                	li	a4,1
    1d0e:	0ff7f793          	andi	a5,a5,255
    1d12:	f8e796e3          	bne	a5,a4,1c9e <USBFS_IRQHandler+0x398>
    1d16:	82318793          	addi	a5,gp,-2013 # 200000a3 <USBFS_DevSleepStatus>
    1d1a:	2398                	lbu	a4,0(a5)
    1d1c:	0fe77713          	andi	a4,a4,254
    1d20:	a398                	sb	a4,0(a5)
    1d22:	bfb5                	j	1c9e <USBFS_IRQHandler+0x398>
    1d24:	0009c703          	lbu	a4,0(s3)
    1d28:	4609                	li	a2,2
    1d2a:	8b7d                	andi	a4,a4,31
    1d2c:	e6c716e3          	bne	a4,a2,1b98 <USBFS_IRQHandler+0x292>
    1d30:	239e                	lhu	a5,0(a5)
    1d32:	0ff7f793          	andi	a5,a5,255
    1d36:	e60791e3          	bnez	a5,1b98 <USBFS_IRQHandler+0x292>
    1d3a:	229e                	lhu	a5,0(a3)
    1d3c:	08100693          	li	a3,129
    1d40:	0ff7f793          	andi	a5,a5,255
    1d44:	00d78d63          	beq	a5,a3,1d5e <USBFS_IRQHandler+0x458>
    1d48:	08300693          	li	a3,131
    1d4c:	00d78e63          	beq	a5,a3,1d68 <USBFS_IRQHandler+0x462>
    1d50:	e4e794e3          	bne	a5,a4,1b98 <USBFS_IRQHandler+0x292>
    1d54:	500007b7          	lui	a5,0x50000
    1d58:	02078da3          	sb	zero,59(a5) # 5000003b <_eusrstack+0x2fffb03b>
    1d5c:	b789                	j	1c9e <USBFS_IRQHandler+0x398>
    1d5e:	500007b7          	lui	a5,0x50000
    1d62:	02e78b23          	sb	a4,54(a5) # 50000036 <_eusrstack+0x2fffb036>
    1d66:	bf25                	j	1c9e <USBFS_IRQHandler+0x398>
    1d68:	500007b7          	lui	a5,0x50000
    1d6c:	02e78f23          	sb	a4,62(a5) # 5000003e <_eusrstack+0x2fffb03e>
    1d70:	b73d                	j	1c9e <USBFS_IRQHandler+0x398>
    1d72:	0009c703          	lbu	a4,0(s3)
    1d76:	8b7d                	andi	a4,a4,31
    1d78:	e705                	bnez	a4,1da0 <USBFS_IRQHandler+0x49a>
    1d7a:	239e                	lhu	a5,0(a5)
    1d7c:	4705                	li	a4,1
    1d7e:	0ff7f793          	andi	a5,a5,255
    1d82:	e0e79be3          	bne	a5,a4,1b98 <USBFS_IRQHandler+0x292>
    1d86:	6791                	lui	a5,0x4
    1d88:	2337c783          	lbu	a5,563(a5) # 4233 <MyCfgDescr+0x7>
    1d8c:	0207f793          	andi	a5,a5,32
    1d90:	e00784e3          	beqz	a5,1b98 <USBFS_IRQHandler+0x292>
    1d94:	82318793          	addi	a5,gp,-2013 # 200000a3 <USBFS_DevSleepStatus>
    1d98:	2398                	lbu	a4,0(a5)
    1d9a:	00176713          	ori	a4,a4,1
    1d9e:	b749                	j	1d20 <USBFS_IRQHandler+0x41a>
    1da0:	0009c703          	lbu	a4,0(s3)
    1da4:	4609                	li	a2,2
    1da6:	8b7d                	andi	a4,a4,31
    1da8:	dec718e3          	bne	a4,a2,1b98 <USBFS_IRQHandler+0x292>
    1dac:	239e                	lhu	a5,0(a5)
    1dae:	0ff7f793          	andi	a5,a5,255
    1db2:	de0793e3          	bnez	a5,1b98 <USBFS_IRQHandler+0x292>
    1db6:	229e                	lhu	a5,0(a3)
    1db8:	08100693          	li	a3,129
    1dbc:	0ff7f793          	andi	a5,a5,255
    1dc0:	02d78163          	beq	a5,a3,1de2 <USBFS_IRQHandler+0x4dc>
    1dc4:	08300693          	li	a3,131
    1dc8:	02d78663          	beq	a5,a3,1df4 <USBFS_IRQHandler+0x4ee>
    1dcc:	dce796e3          	bne	a5,a4,1b98 <USBFS_IRQHandler+0x292>
    1dd0:	50000737          	lui	a4,0x50000
    1dd4:	03b74783          	lbu	a5,59(a4) # 5000003b <_eusrstack+0x2fffb03b>
    1dd8:	0037e793          	ori	a5,a5,3
    1ddc:	02f70da3          	sb	a5,59(a4)
    1de0:	bd7d                	j	1c9e <USBFS_IRQHandler+0x398>
    1de2:	50000737          	lui	a4,0x50000
    1de6:	03674783          	lbu	a5,54(a4) # 50000036 <_eusrstack+0x2fffb036>
    1dea:	0037e793          	ori	a5,a5,3
    1dee:	02f70b23          	sb	a5,54(a4)
    1df2:	b575                	j	1c9e <USBFS_IRQHandler+0x398>
    1df4:	50000737          	lui	a4,0x50000
    1df8:	03e74783          	lbu	a5,62(a4) # 5000003e <_eusrstack+0x2fffb03e>
    1dfc:	0037e793          	ori	a5,a5,3
    1e00:	02f70f23          	sb	a5,62(a4)
    1e04:	bd69                	j	1c9e <USBFS_IRQHandler+0x398>
    1e06:	00060023          	sb	zero,0(a2)
    1e0a:	bdd9                	j	1ce0 <USBFS_IRQHandler+0x3da>
    1e0c:	0009c783          	lbu	a5,0(s3)
    1e10:	00061023          	sh	zero,0(a2)
    1e14:	8bfd                	andi	a5,a5,31
    1e16:	e385                	bnez	a5,1e36 <USBFS_IRQHandler+0x530>
    1e18:	8231c783          	lbu	a5,-2013(gp) # 200000a3 <USBFS_DevSleepStatus>
    1e1c:	4401                	li	s0,0
    1e1e:	8b85                	andi	a5,a5,1
    1e20:	c399                	beqz	a5,1e26 <USBFS_IRQHandler+0x520>
    1e22:	4789                	li	a5,2
    1e24:	a21c                	sb	a5,0(a2)
    1e26:	00095703          	lhu	a4,0(s2)
    1e2a:	4789                	li	a5,2
    1e2c:	d6e7f2e3          	bgeu	a5,a4,1b90 <USBFS_IRQHandler+0x28a>
    1e30:	00f91023          	sh	a5,0(s2)
    1e34:	bbb1                	j	1b90 <USBFS_IRQHandler+0x28a>
    1e36:	0009c703          	lbu	a4,0(s3)
    1e3a:	4789                	li	a5,2
    1e3c:	0ff00413          	li	s0,255
    1e40:	8b7d                	andi	a4,a4,31
    1e42:	fef712e3          	bne	a4,a5,1e26 <USBFS_IRQHandler+0x520>
    1e46:	229e                	lhu	a5,0(a3)
    1e48:	08100693          	li	a3,129
    1e4c:	0ff7f793          	andi	a5,a5,255
    1e50:	02d78163          	beq	a5,a3,1e72 <USBFS_IRQHandler+0x56c>
    1e54:	08300693          	li	a3,131
    1e58:	02d78a63          	beq	a5,a3,1e8c <USBFS_IRQHandler+0x586>
    1e5c:	fce795e3          	bne	a5,a4,1e26 <USBFS_IRQHandler+0x520>
    1e60:	500007b7          	lui	a5,0x50000
    1e64:	03b7c783          	lbu	a5,59(a5) # 5000003b <_eusrstack+0x2fffb03b>
    1e68:	8b8d                	andi	a5,a5,3
    1e6a:	470d                	li	a4,3
    1e6c:	00e79e63          	bne	a5,a4,1e88 <USBFS_IRQHandler+0x582>
    1e70:	a811                	j	1e84 <USBFS_IRQHandler+0x57e>
    1e72:	500007b7          	lui	a5,0x50000
    1e76:	0367c783          	lbu	a5,54(a5) # 50000036 <_eusrstack+0x2fffb036>
    1e7a:	470d                	li	a4,3
    1e7c:	4401                	li	s0,0
    1e7e:	8b8d                	andi	a5,a5,3
    1e80:	fae793e3          	bne	a5,a4,1e26 <USBFS_IRQHandler+0x520>
    1e84:	4785                	li	a5,1
    1e86:	a21c                	sb	a5,0(a2)
    1e88:	4401                	li	s0,0
    1e8a:	bf71                	j	1e26 <USBFS_IRQHandler+0x520>
    1e8c:	500007b7          	lui	a5,0x50000
    1e90:	03e7c783          	lbu	a5,62(a5) # 5000003e <_eusrstack+0x2fffb03e>
    1e94:	bfd1                	j	1e68 <USBFS_IRQHandler+0x562>
    1e96:	00095783          	lhu	a5,0(s2)
    1e9a:	07c2                	slli	a5,a5,0x10
    1e9c:	83c1                	srli	a5,a5,0x10
    1e9e:	c20785e3          	beqz	a5,1ac8 <USBFS_IRQHandler+0x1c2>
    1ea2:	500007b7          	lui	a5,0x50000
    1ea6:	4711                	li	a4,4
    1ea8:	b9ed                	j	1ba2 <USBFS_IRQHandler+0x29c>
    1eaa:	00177793          	andi	a5,a4,1
    1eae:	c385                	beqz	a5,1ece <USBFS_IRQHandler+0x5c8>
    1eb0:	000401a3          	sb	zero,3(s0)
    1eb4:	8a7ff0ef          	jal	ra,175a <USBFS_Device_Endp_Init>
    1eb8:	4785                	li	a5,1
    1eba:	a07c                	sb	a5,6(s0)
    1ebc:	4472                	lw	s0,28(sp)
    1ebe:	44e2                	lw	s1,24(sp)
    1ec0:	4952                	lw	s2,20(sp)
    1ec2:	49c2                	lw	s3,16(sp)
    1ec4:	4a32                	lw	s4,12(sp)
    1ec6:	4aa2                	lw	s5,8(sp)
    1ec8:	6105                	addi	sp,sp,32
    1eca:	30200073          	mret
    1ece:	00477793          	andi	a5,a4,4
    1ed2:	c785                	beqz	a5,1efa <USBFS_IRQHandler+0x5f4>
    1ed4:	3058                	lbu	a4,5(s0)
    1ed6:	82318793          	addi	a5,gp,-2013 # 200000a3 <USBFS_DevSleepStatus>
    1eda:	8b11                	andi	a4,a4,4
    1edc:	cb11                	beqz	a4,1ef0 <USBFS_IRQHandler+0x5ea>
    1ede:	2398                	lbu	a4,0(a5)
    1ee0:	00276713          	ori	a4,a4,2
    1ee4:	a398                	sb	a4,0(a5)
    1ee6:	239c                	lbu	a5,0(a5)
    1ee8:	500007b7          	lui	a5,0x50000
    1eec:	4711                	li	a4,4
    1eee:	be1d                	j	1a24 <USBFS_IRQHandler+0x11e>
    1ef0:	2398                	lbu	a4,0(a5)
    1ef2:	0fd77713          	andi	a4,a4,253
    1ef6:	a398                	sb	a4,0(a5)
    1ef8:	bfc5                	j	1ee8 <USBFS_IRQHandler+0x5e2>
    1efa:	a078                	sb	a4,6(s0)
    1efc:	b7c1                	j	1ebc <USBFS_IRQHandler+0x5b6>

00001efe <usbSerial_begin>:
    1efe:	a32fe2ef          	jal	t0,130 <__riscv_save_0>
    1f02:	843ff0ef          	jal	ra,1744 <USBFS_RCC_Init>
    1f06:	4505                	li	a0,1
    1f08:	8bfff0ef          	jal	ra,17c6 <USBFS_Device_Init>
    1f0c:	82019f23          	sh	zero,-1986(gp) # 200000be <rx_tail>
    1f10:	82019e23          	sh	zero,-1988(gp) # 200000bc <rx_head>
    1f14:	84019223          	sh	zero,-1980(gp) # 200000c4 <tx_tail>
    1f18:	84019023          	sh	zero,-1984(gp) # 200000c0 <tx_head>
    1f1c:	a38fe06f          	j	154 <__riscv_restore_0>

00001f20 <usbSerial_connected>:
    1f20:	8221c783          	lbu	a5,-2014(gp) # 200000a2 <USBFS_DevEnumStatus>
    1f24:	4705                	li	a4,1
    1f26:	4501                	li	a0,0
    1f28:	00f71863          	bne	a4,a5,1f38 <usbSerial_connected+0x18>
    1f2c:	8211c503          	lbu	a0,-2015(gp) # 200000a1 <USBFS_DevConfig>
    1f30:	0ff57513          	andi	a0,a0,255
    1f34:	00a03533          	snez	a0,a0
    1f38:	8082                	ret

00001f3a <tx_kick>:
    1f3a:	9f6fe2ef          	jal	t0,130 <__riscv_save_0>
    1f3e:	7139                	addi	sp,sp,-64
    1f40:	37c5                	jal	1f20 <usbSerial_connected>
    1f42:	cd25                	beqz	a0,1fba <tx_kick+0x80>
    1f44:	82418793          	addi	a5,gp,-2012 # 200000a4 <USBFS_Endp_Busy>
    1f48:	33bc                	lbu	a5,3(a5)
    1f4a:	0ff7f793          	andi	a5,a5,255
    1f4e:	e7b5                	bnez	a5,1fba <tx_kick+0x80>
    1f50:	84418693          	addi	a3,gp,-1980 # 200000c4 <tx_tail>
    1f54:	8401d783          	lhu	a5,-1984(gp) # 200000c0 <tx_head>
    1f58:	2296                	lhu	a3,0(a3)
    1f5a:	84418713          	addi	a4,gp,-1980 # 200000c4 <tx_tail>
    1f5e:	07c2                	slli	a5,a5,0x10
    1f60:	06c2                	slli	a3,a3,0x10
    1f62:	83c1                	srli	a5,a5,0x10
    1f64:	82c1                	srli	a3,a3,0x10
    1f66:	04d7ed63          	bltu	a5,a3,1fc0 <tx_kick+0x86>
    1f6a:	8f95                	sub	a5,a5,a3
    1f6c:	07c2                	slli	a5,a5,0x10
    1f6e:	83c1                	srli	a5,a5,0x10
    1f70:	c7a9                	beqz	a5,1fba <tx_kick+0x80>
    1f72:	04000693          	li	a3,64
    1f76:	863e                	mv	a2,a5
    1f78:	00f6f463          	bgeu	a3,a5,1f80 <tx_kick+0x46>
    1f7c:	04000613          	li	a2,64
    1f80:	0642                	slli	a2,a2,0x10
    1f82:	200015b7          	lui	a1,0x20001
    1f86:	8241                	srli	a2,a2,0x10
    1f88:	4681                	li	a3,0
    1f8a:	9e458593          	addi	a1,a1,-1564 # 200009e4 <tx_ring>
    1f8e:	231e                	lhu	a5,0(a4)
    1f90:	00d10533          	add	a0,sp,a3
    1f94:	0685                	addi	a3,a3,1
    1f96:	97ae                	add	a5,a5,a1
    1f98:	239c                	lbu	a5,0(a5)
    1f9a:	a11c                	sb	a5,0(a0)
    1f9c:	231e                	lhu	a5,0(a4)
    1f9e:	0785                	addi	a5,a5,1
    1fa0:	7ff7f793          	andi	a5,a5,2047
    1fa4:	a31e                	sh	a5,0(a4)
    1fa6:	01069793          	slli	a5,a3,0x10
    1faa:	83c1                	srli	a5,a5,0x10
    1fac:	fec7e1e3          	bltu	a5,a2,1f8e <tx_kick+0x54>
    1fb0:	4685                	li	a3,1
    1fb2:	858a                	mv	a1,sp
    1fb4:	450d                	li	a0,3
    1fb6:	867ff0ef          	jal	ra,181c <USBFS_Endp_DataUp>
    1fba:	6121                	addi	sp,sp,64
    1fbc:	998fe06f          	j	154 <__riscv_restore_0>
    1fc0:	6605                	lui	a2,0x1
    1fc2:	80060613          	addi	a2,a2,-2048 # 800 <__stack_size>
    1fc6:	97b2                	add	a5,a5,a2
    1fc8:	b74d                	j	1f6a <tx_kick+0x30>

00001fca <usbSerial_available>:
    1fca:	83c1d503          	lhu	a0,-1988(gp) # 200000bc <rx_head>
    1fce:	83e1d783          	lhu	a5,-1986(gp) # 200000be <rx_tail>
    1fd2:	0542                	slli	a0,a0,0x10
    1fd4:	8141                	srli	a0,a0,0x10
    1fd6:	07c2                	slli	a5,a5,0x10
    1fd8:	83c1                	srli	a5,a5,0x10
    1fda:	00f56663          	bltu	a0,a5,1fe6 <usbSerial_available+0x1c>
    1fde:	8d1d                	sub	a0,a0,a5
    1fe0:	0542                	slli	a0,a0,0x10
    1fe2:	8141                	srli	a0,a0,0x10
    1fe4:	8082                	ret
    1fe6:	6705                	lui	a4,0x1
    1fe8:	80070713          	addi	a4,a4,-2048 # 800 <__stack_size>
    1fec:	953a                	add	a0,a0,a4
    1fee:	bfc5                	j	1fde <usbSerial_available+0x14>

00001ff0 <usbSerial_read>:
    1ff0:	83c1d683          	lhu	a3,-1988(gp) # 200000bc <rx_head>
    1ff4:	83e18793          	addi	a5,gp,-1986 # 200000be <rx_tail>
    1ff8:	239a                	lhu	a4,0(a5)
    1ffa:	4501                	li	a0,0
    1ffc:	0742                	slli	a4,a4,0x10
    1ffe:	8341                	srli	a4,a4,0x10
    2000:	00d70e63          	beq	a4,a3,201c <usbSerial_read+0x2c>
    2004:	2396                	lhu	a3,0(a5)
    2006:	20000737          	lui	a4,0x20000
    200a:	1e470713          	addi	a4,a4,484 # 200001e4 <rx_ring>
    200e:	9736                	add	a4,a4,a3
    2010:	2308                	lbu	a0,0(a4)
    2012:	239a                	lhu	a4,0(a5)
    2014:	0705                	addi	a4,a4,1
    2016:	7ff77713          	andi	a4,a4,2047
    201a:	a39a                	sh	a4,0(a5)
    201c:	8082                	ret

0000201e <usbSerial_blocking_read_u8>:
    201e:	912fe2ef          	jal	t0,130 <__riscv_save_0>
    2022:	3765                	jal	1fca <usbSerial_available>
    2024:	dd7d                	beqz	a0,2022 <usbSerial_blocking_read_u8+0x4>
    2026:	37e9                	jal	1ff0 <usbSerial_read>
    2028:	92cfe06f          	j	154 <__riscv_restore_0>

0000202c <usbSerial_writeP>:
    202c:	904fe2ef          	jal	t0,130 <__riscv_save_0>
    2030:	6605                	lui	a2,0x1
    2032:	20001837          	lui	a6,0x20001
    2036:	4681                	li	a3,0
    2038:	80060613          	addi	a2,a2,-2048 # 800 <__stack_size>
    203c:	7ff00e93          	li	t4,2047
    2040:	9e480813          	addi	a6,a6,-1564 # 200009e4 <tx_ring>
    2044:	01069413          	slli	s0,a3,0x10
    2048:	8041                	srli	s0,s0,0x10
    204a:	00b46663          	bltu	s0,a1,2056 <usbSerial_writeP+0x2a>
    204e:	35f5                	jal	1f3a <tx_kick>
    2050:	8522                	mv	a0,s0
    2052:	902fe06f          	j	154 <__riscv_restore_0>
    2056:	84018793          	addi	a5,gp,-1984 # 200000c0 <tx_head>
    205a:	84418713          	addi	a4,gp,-1980 # 200000c4 <tx_tail>
    205e:	239e                	lhu	a5,0(a5)
    2060:	231a                	lhu	a4,0(a4)
    2062:	84018893          	addi	a7,gp,-1984 # 200000c0 <tx_head>
    2066:	07c2                	slli	a5,a5,0x10
    2068:	0742                	slli	a4,a4,0x10
    206a:	83c1                	srli	a5,a5,0x10
    206c:	8341                	srli	a4,a4,0x10
    206e:	02e7e763          	bltu	a5,a4,209c <usbSerial_writeP+0x70>
    2072:	8f99                	sub	a5,a5,a4
    2074:	07c2                	slli	a5,a5,0x10
    2076:	83c1                	srli	a5,a5,0x10
    2078:	fdd78be3          	beq	a5,t4,204e <usbSerial_writeP+0x22>
    207c:	0008d783          	lhu	a5,0(a7)
    2080:	00d50733          	add	a4,a0,a3
    2084:	2318                	lbu	a4,0(a4)
    2086:	97c2                	add	a5,a5,a6
    2088:	0685                	addi	a3,a3,1
    208a:	a398                	sb	a4,0(a5)
    208c:	0008d783          	lhu	a5,0(a7)
    2090:	0785                	addi	a5,a5,1
    2092:	7ff7f793          	andi	a5,a5,2047
    2096:	00f89023          	sh	a5,0(a7)
    209a:	b76d                	j	2044 <usbSerial_writeP+0x18>
    209c:	97b2                	add	a5,a5,a2
    209e:	bfd1                	j	2072 <usbSerial_writeP+0x46>

000020a0 <usbSerial_blocking_read_u32>:
    20a0:	890fe2ef          	jal	t0,130 <__riscv_save_0>
    20a4:	3fad                	jal	201e <usbSerial_blocking_read_u8>
    20a6:	892a                	mv	s2,a0
    20a8:	3f9d                	jal	201e <usbSerial_blocking_read_u8>
    20aa:	842a                	mv	s0,a0
    20ac:	3f8d                	jal	201e <usbSerial_blocking_read_u8>
    20ae:	84aa                	mv	s1,a0
    20b0:	37bd                	jal	201e <usbSerial_blocking_read_u8>
    20b2:	00841793          	slli	a5,s0,0x8
    20b6:	01049713          	slli	a4,s1,0x10
    20ba:	8fd9                	or	a5,a5,a4
    20bc:	0127e7b3          	or	a5,a5,s2
    20c0:	0562                	slli	a0,a0,0x18
    20c2:	8d5d                	or	a0,a0,a5
    20c4:	890fe06f          	j	154 <__riscv_restore_0>

000020c8 <usbSerial_flush>:
    20c8:	868fe2ef          	jal	t0,130 <__riscv_save_0>
    20cc:	35bd                	jal	1f3a <tx_kick>
    20ce:	886fe06f          	j	154 <__riscv_restore_0>

000020d2 <usbSerial_tx_pending>:
    20d2:	8401d503          	lhu	a0,-1984(gp) # 200000c0 <tx_head>
    20d6:	8441d783          	lhu	a5,-1980(gp) # 200000c4 <tx_tail>
    20da:	0542                	slli	a0,a0,0x10
    20dc:	8141                	srli	a0,a0,0x10
    20de:	07c2                	slli	a5,a5,0x10
    20e0:	83c1                	srli	a5,a5,0x10
    20e2:	00f56663          	bltu	a0,a5,20ee <usbSerial_tx_pending+0x1c>
    20e6:	8d1d                	sub	a0,a0,a5
    20e8:	0542                	slli	a0,a0,0x10
    20ea:	8141                	srli	a0,a0,0x10
    20ec:	8082                	ret
    20ee:	6705                	lui	a4,0x1
    20f0:	80070713          	addi	a4,a4,-2048 # 800 <__stack_size>
    20f4:	953a                	add	a0,a0,a4
    20f6:	bfc5                	j	20e6 <usbSerial_tx_pending+0x14>

000020f8 <usbSerial_send_zlp>:
    20f8:	838fe2ef          	jal	t0,130 <__riscv_save_0>
    20fc:	6431                	lui	s0,0xc
    20fe:	35140413          	addi	s0,s0,849 # c351 <_data_lma+0x7f21>
    2102:	82418493          	addi	s1,gp,-2012 # 200000a4 <USBFS_Endp_Busy>
    2106:	30bc                	lbu	a5,3(s1)
    2108:	0ff7f793          	andi	a5,a5,255
    210c:	c399                	beqz	a5,2112 <usbSerial_send_zlp+0x1a>
    210e:	147d                	addi	s0,s0,-1
    2110:	ec11                	bnez	s0,212c <usbSerial_send_zlp+0x34>
    2112:	30bc                	lbu	a5,3(s1)
    2114:	0ff7f793          	andi	a5,a5,255
    2118:	eb81                	bnez	a5,2128 <usbSerial_send_zlp+0x30>
    211a:	4685                	li	a3,1
    211c:	4601                	li	a2,0
    211e:	92418593          	addi	a1,gp,-1756 # 200001a4 <USBFS_EP3_Buf>
    2122:	450d                	li	a0,3
    2124:	ef8ff0ef          	jal	ra,181c <USBFS_Endp_DataUp>
    2128:	82cfe06f          	j	154 <__riscv_restore_0>
    212c:	4529                	li	a0,10
    212e:	7b9000ef          	jal	ra,30e6 <Delay_Us>
    2132:	bfd1                	j	2106 <usbSerial_send_zlp+0xe>

00002134 <usbSerial_blocking_writeP>:
    2134:	ffdfd2ef          	jal	t0,130 <__riscv_save_0>
    2138:	842e                	mv	s0,a1
    213a:	3dcd                	jal	202c <usbSerial_writeP>
    213c:	3f59                	jal	20d2 <usbSerial_tx_pending>
    213e:	e901                	bnez	a0,214e <usbSerial_blocking_writeP+0x1a>
    2140:	c409                	beqz	s0,214a <usbSerial_blocking_writeP+0x16>
    2142:	03f47413          	andi	s0,s0,63
    2146:	e011                	bnez	s0,214a <usbSerial_blocking_writeP+0x16>
    2148:	3f45                	jal	20f8 <usbSerial_send_zlp>
    214a:	80afe06f          	j	154 <__riscv_restore_0>
    214e:	dedff0ef          	jal	ra,1f3a <tx_kick>
    2152:	06400513          	li	a0,100
    2156:	791000ef          	jal	ra,30e6 <Delay_Us>
    215a:	b7cd                	j	213c <usbSerial_blocking_writeP+0x8>

0000215c <usbSerial_blocking_writeP_u32>:
    215c:	fd5fd2ef          	jal	t0,130 <__riscv_save_0>
    2160:	1141                	addi	sp,sp,-16
    2162:	c62a                	sw	a0,12(sp)
    2164:	4591                	li	a1,4
    2166:	0068                	addi	a0,sp,12
    2168:	37f1                	jal	2134 <usbSerial_blocking_writeP>
    216a:	0141                	addi	sp,sp,16
    216c:	fe9fd06f          	j	154 <__riscv_restore_0>

00002170 <usbSerial_on_ep2_out>:
    2170:	6605                	lui	a2,0x1
    2172:	200005b7          	lui	a1,0x20000
    2176:	4681                	li	a3,0
    2178:	80060613          	addi	a2,a2,-2048 # 800 <__stack_size>
    217c:	7ff00e93          	li	t4,2047
    2180:	1e458593          	addi	a1,a1,484 # 200001e4 <rx_ring>
    2184:	8e418813          	addi	a6,gp,-1820 # 20000164 <USBFS_EP2_Buf>
    2188:	01069793          	slli	a5,a3,0x10
    218c:	83c1                	srli	a5,a5,0x10
    218e:	00a7e363          	bltu	a5,a0,2194 <usbSerial_on_ep2_out+0x24>
    2192:	8082                	ret
    2194:	83c18793          	addi	a5,gp,-1988 # 200000bc <rx_head>
    2198:	83e18713          	addi	a4,gp,-1986 # 200000be <rx_tail>
    219c:	239e                	lhu	a5,0(a5)
    219e:	231a                	lhu	a4,0(a4)
    21a0:	83c18893          	addi	a7,gp,-1988 # 200000bc <rx_head>
    21a4:	07c2                	slli	a5,a5,0x10
    21a6:	0742                	slli	a4,a4,0x10
    21a8:	83c1                	srli	a5,a5,0x10
    21aa:	8341                	srli	a4,a4,0x10
    21ac:	02e7e763          	bltu	a5,a4,21da <usbSerial_on_ep2_out+0x6a>
    21b0:	8f99                	sub	a5,a5,a4
    21b2:	07c2                	slli	a5,a5,0x10
    21b4:	83c1                	srli	a5,a5,0x10
    21b6:	fdd78ee3          	beq	a5,t4,2192 <usbSerial_on_ep2_out+0x22>
    21ba:	0008d783          	lhu	a5,0(a7)
    21be:	01068733          	add	a4,a3,a6
    21c2:	2318                	lbu	a4,0(a4)
    21c4:	97ae                	add	a5,a5,a1
    21c6:	0685                	addi	a3,a3,1
    21c8:	a398                	sb	a4,0(a5)
    21ca:	0008d783          	lhu	a5,0(a7)
    21ce:	0785                	addi	a5,a5,1
    21d0:	7ff7f793          	andi	a5,a5,2047
    21d4:	00f89023          	sh	a5,0(a7)
    21d8:	bf45                	j	2188 <usbSerial_on_ep2_out+0x18>
    21da:	97b2                	add	a5,a5,a2
    21dc:	bfd1                	j	21b0 <usbSerial_on_ep2_out+0x40>

000021de <usbSerial_on_ep3_in_done>:
    21de:	4705                	li	a4,1
    21e0:	84e18123          	sb	a4,-1982(gp) # 200000c2 <tx_pending_kick>
    21e4:	8082                	ret

000021e6 <TIM4_pulseio_start>:
    21e6:	f4bfd2ef          	jal	t0,130 <__riscv_save_0>
    21ea:	40001437          	lui	s0,0x40001
    21ee:	80040513          	addi	a0,s0,-2048 # 40000800 <_eusrstack+0x1fffb800>
    21f2:	4581                	li	a1,0
    21f4:	5ef000ef          	jal	ra,2fe2 <TIM_SetCounter>
    21f8:	80040513          	addi	a0,s0,-2048
    21fc:	45fd                	li	a1,31
    21fe:	5e9000ef          	jal	ra,2fe6 <TIM_ClearFlag>
    2202:	4585                	li	a1,1
    2204:	80040513          	addi	a0,s0,-2048
    2208:	54b000ef          	jal	ra,2f52 <TIM_Cmd>
    220c:	f49fd06f          	j	154 <__riscv_restore_0>

00002210 <TIM4_pulseio_stop>:
    2210:	f21fd2ef          	jal	t0,130 <__riscv_save_0>
    2214:	40001537          	lui	a0,0x40001
    2218:	80050513          	addi	a0,a0,-2048 # 40000800 <_eusrstack+0x1fffb800>
    221c:	3142                	lhu	s0,36(a0)
    221e:	4581                	li	a1,0
    2220:	533000ef          	jal	ra,2f52 <TIM_Cmd>
    2224:	0442                	slli	s0,s0,0x10
    2226:	8041                	srli	s0,s0,0x10
    2228:	8522                	mv	a0,s0
    222a:	f2bfd06f          	j	154 <__riscv_restore_0>

0000222e <NMI_Handler>:
    222e:	a001                	j	222e <NMI_Handler>

00002230 <HardFault_Handler>:
    2230:	beef07b7          	lui	a5,0xbeef0
    2234:	e000e737          	lui	a4,0xe000e
    2238:	08078793          	addi	a5,a5,128 # beef0080 <_eusrstack+0x9eeeb080>
    223c:	c73c                	sw	a5,72(a4)
    223e:	a001                	j	223e <HardFault_Handler+0xe>

00002240 <capture_pulse>:
    2240:	ef1fd2ef          	jal	t0,130 <__riscv_save_0>
    2244:	842a                	mv	s0,a0
    2246:	79a000ef          	jal	ra,29e0 <EXTI_GetITStatus>
    224a:	c129                	beqz	a0,228c <capture_pulse+0x4c>
    224c:	37d1                	jal	2210 <TIM4_pulseio_stop>
    224e:	84c18713          	addi	a4,gp,-1972 # 200000cc <pio_head>
    2252:	431c                	lw	a5,0(a4)
    2254:	20001637          	lui	a2,0x20001
    2258:	1e460613          	addi	a2,a2,484 # 200011e4 <pio_buffer>
    225c:	00179693          	slli	a3,a5,0x1
    2260:	96b2                	add	a3,a3,a2
    2262:	a28a                	sh	a0,0(a3)
    2264:	6685                	lui	a3,0x1
    2266:	bb868613          	addi	a2,a3,-1096 # bb8 <__stack_size+0x3b8>
    226a:	0785                	addi	a5,a5,1
    226c:	02c7f7b3          	remu	a5,a5,a2
    2270:	bb768693          	addi	a3,a3,-1097
    2274:	c31c                	sw	a5,0(a4)
    2276:	84818793          	addi	a5,gp,-1976 # 200000c8 <pio_count>
    227a:	4398                	lw	a4,0(a5)
    227c:	00e6e463          	bltu	a3,a4,2284 <capture_pulse+0x44>
    2280:	0705                	addi	a4,a4,1
    2282:	c398                	sw	a4,0(a5)
    2284:	8522                	mv	a0,s0
    2286:	778000ef          	jal	ra,29fe <EXTI_ClearITPendingBit>
    228a:	3fb1                	jal	21e6 <TIM4_pulseio_start>
    228c:	ec9fd06f          	j	154 <__riscv_restore_0>

00002290 <EXTI0_IRQHandler>:
    2290:	4505                	li	a0,1
    2292:	377d                	jal	2240 <capture_pulse>
    2294:	30200073          	mret

00002298 <EXTI1_IRQHandler>:
    2298:	4509                	li	a0,2
    229a:	375d                	jal	2240 <capture_pulse>
    229c:	30200073          	mret

000022a0 <EXTI2_IRQHandler>:
    22a0:	4511                	li	a0,4
    22a2:	3f79                	jal	2240 <capture_pulse>
    22a4:	30200073          	mret

000022a8 <EXTI3_IRQHandler>:
    22a8:	4521                	li	a0,8
    22aa:	3f59                	jal	2240 <capture_pulse>
    22ac:	30200073          	mret

000022b0 <EXTI4_IRQHandler>:
    22b0:	4541                	li	a0,16
    22b2:	3779                	jal	2240 <capture_pulse>
    22b4:	30200073          	mret

000022b8 <EXTI9_5_IRQHandler>:
    22b8:	02000513          	li	a0,32
    22bc:	3751                	jal	2240 <capture_pulse>
    22be:	04000513          	li	a0,64
    22c2:	3fbd                	jal	2240 <capture_pulse>
    22c4:	08000513          	li	a0,128
    22c8:	3fa5                	jal	2240 <capture_pulse>
    22ca:	10000513          	li	a0,256
    22ce:	3f8d                	jal	2240 <capture_pulse>
    22d0:	20000513          	li	a0,512
    22d4:	37b5                	jal	2240 <capture_pulse>
    22d6:	30200073          	mret

000022da <EXTI15_10_IRQHandler>:
    22da:	40000513          	li	a0,1024
    22de:	378d                	jal	2240 <capture_pulse>
    22e0:	6505                	lui	a0,0x1
    22e2:	80050513          	addi	a0,a0,-2048 # 800 <__stack_size>
    22e6:	3fa9                	jal	2240 <capture_pulse>
    22e8:	6505                	lui	a0,0x1
    22ea:	3f99                	jal	2240 <capture_pulse>
    22ec:	6509                	lui	a0,0x2
    22ee:	3f89                	jal	2240 <capture_pulse>
    22f0:	6511                	lui	a0,0x4
    22f2:	37b9                	jal	2240 <capture_pulse>
    22f4:	6521                	lui	a0,0x8
    22f6:	37a9                	jal	2240 <capture_pulse>
    22f8:	30200073          	mret

000022fc <CH_init>:
    22fc:	e35fd2ef          	jal	t0,130 <__riscv_save_0>
    2300:	1101                	addi	sp,sp,-32
    2302:	0ff00793          	li	a5,255
    2306:	847c                	sh	a5,8(sp)
    2308:	004c                	addi	a1,sp,4
    230a:	47b9                	li	a5,14
    230c:	842a                	mv	s0,a0
    230e:	827c                	sh	a5,4(sp)
    2310:	c802                	sw	zero,16(sp)
    2312:	ca02                	sw	zero,20(sp)
    2314:	cc02                	sw	zero,24(sp)
    2316:	ce02                	sw	zero,28(sp)
    2318:	00011323          	sh	zero,6(sp)
    231c:	00011523          	sh	zero,10(sp)
    2320:	00011623          	sh	zero,12(sp)
    2324:	1cd000ef          	jal	ra,2cf0 <TIM_TimeBaseInit>
    2328:	67c1                	lui	a5,0x10
    232a:	06078793          	addi	a5,a5,96 # 10060 <_data_lma+0xbc30>
    232e:	080c                	addi	a1,sp,16
    2330:	8522                	mv	a0,s0
    2332:	c83e                	sw	a5,16(sp)
    2334:	00011b23          	sh	zero,22(sp)
    2338:	00011c23          	sh	zero,24(sp)
    233c:	217000ef          	jal	ra,2d52 <TIM_OC1Init>
    2340:	4581                	li	a1,0
    2342:	8522                	mv	a0,s0
    2344:	457000ef          	jal	ra,2f9a <TIM_OC1PreloadConfig>
    2348:	080c                	addi	a1,sp,16
    234a:	8522                	mv	a0,s0
    234c:	271000ef          	jal	ra,2dbc <TIM_OC2Init>
    2350:	4581                	li	a1,0
    2352:	8522                	mv	a0,s0
    2354:	455000ef          	jal	ra,2fa8 <TIM_OC2PreloadConfig>
    2358:	400007b7          	lui	a5,0x40000
    235c:	40078793          	addi	a5,a5,1024 # 40000400 <_eusrstack+0x1fffb400>
    2360:	02f40263          	beq	s0,a5,2384 <CH_init+0x88>
    2364:	080c                	addi	a1,sp,16
    2366:	8522                	mv	a0,s0
    2368:	2eb000ef          	jal	ra,2e52 <TIM_OC3Init>
    236c:	4581                	li	a1,0
    236e:	8522                	mv	a0,s0
    2370:	44f000ef          	jal	ra,2fbe <TIM_OC3PreloadConfig>
    2374:	080c                	addi	a1,sp,16
    2376:	8522                	mv	a0,s0
    2378:	36f000ef          	jal	ra,2ee6 <TIM_OC4Init>
    237c:	4581                	li	a1,0
    237e:	8522                	mv	a0,s0
    2380:	44d000ef          	jal	ra,2fcc <TIM_OC4PreloadConfig>
    2384:	4585                	li	a1,1
    2386:	8522                	mv	a0,s0
    2388:	3f9000ef          	jal	ra,2f80 <TIM_ARRPreloadConfig>
    238c:	400137b7          	lui	a5,0x40013
    2390:	c0078793          	addi	a5,a5,-1024 # 40012c00 <_eusrstack+0x2000dc00>
    2394:	00f41663          	bne	s0,a5,23a0 <CH_init+0xa4>
    2398:	4585                	li	a1,1
    239a:	8522                	mv	a0,s0
    239c:	3cf000ef          	jal	ra,2f6a <TIM_CtrlPWMOutputs>
    23a0:	4585                	li	a1,1
    23a2:	8522                	mv	a0,s0
    23a4:	3af000ef          	jal	ra,2f52 <TIM_Cmd>
    23a8:	6105                	addi	sp,sp,32
    23aa:	dabfd06f          	j	154 <__riscv_restore_0>

000023ae <TIM4_pulseio_init>:
    23ae:	d83fd2ef          	jal	t0,130 <__riscv_save_0>
    23b2:	1101                	addi	sp,sp,-32
    23b4:	57fd                	li	a5,-1
    23b6:	c202                	sw	zero,4(sp)
    23b8:	0068                	addi	a0,sp,12
    23ba:	827c                	sh	a5,4(sp)
    23bc:	c002                	sw	zero,0(sp)
    23be:	00011423          	sh	zero,8(sp)
    23c2:	7f8000ef          	jal	ra,2bba <RCC_GetClocksFreq>
    23c6:	40021737          	lui	a4,0x40021
    23ca:	4358                	lw	a4,4(a4)
    23cc:	47d2                	lw	a5,20(sp)
    23ce:	8321                	srli	a4,a4,0x8
    23d0:	8b11                	andi	a4,a4,4
    23d2:	c311                	beqz	a4,23d6 <TIM4_pulseio_init+0x28>
    23d4:	0786                	slli	a5,a5,0x1
    23d6:	000f4737          	lui	a4,0xf4
    23da:	24070713          	addi	a4,a4,576 # f4240 <_data_lma+0xefe10>
    23de:	02e7d7b3          	divu	a5,a5,a4
    23e2:	40001437          	lui	s0,0x40001
    23e6:	858a                	mv	a1,sp
    23e8:	80040513          	addi	a0,s0,-2048 # 40000800 <_eusrstack+0x1fffb800>
    23ec:	00011323          	sh	zero,6(sp)
    23f0:	00011123          	sh	zero,2(sp)
    23f4:	00010423          	sb	zero,8(sp)
    23f8:	17fd                	addi	a5,a5,-1
    23fa:	807c                	sh	a5,0(sp)
    23fc:	0f5000ef          	jal	ra,2cf0 <TIM_TimeBaseInit>
    2400:	80040513          	addi	a0,s0,-2048
    2404:	4585                	li	a1,1
    2406:	37b000ef          	jal	ra,2f80 <TIM_ARRPreloadConfig>
    240a:	80040513          	addi	a0,s0,-2048
    240e:	4581                	li	a1,0
    2410:	343000ef          	jal	ra,2f52 <TIM_Cmd>
    2414:	45fd                	li	a1,31
    2416:	80040513          	addi	a0,s0,-2048
    241a:	3cd000ef          	jal	ra,2fe6 <TIM_ClearFlag>
    241e:	6105                	addi	sp,sp,32
    2420:	d35fd06f          	j	154 <__riscv_restore_0>

00002424 <ADC1_Init_Single>:
    2424:	d0dfd2ef          	jal	t0,130 <__riscv_save_0>
    2428:	1101                	addi	sp,sp,-32
    242a:	02000613          	li	a2,32
    242e:	4581                	li	a1,0
    2430:	850a                	mv	a0,sp
    2432:	d2ffd0ef          	jal	ra,160 <memset>
    2436:	6531                	lui	a0,0xc
    2438:	40012437          	lui	s0,0x40012
    243c:	76c000ef          	jal	ra,2ba8 <RCC_ADCCLKConfig>
    2440:	40040513          	addi	a0,s0,1024 # 40012400 <_eusrstack+0x2000d400>
    2444:	2e3d                	jal	2782 <ADC_DeInit>
    2446:	000e07b7          	lui	a5,0xe0
    244a:	c63e                	sw	a5,12(sp)
    244c:	858a                	mv	a1,sp
    244e:	4785                	li	a5,1
    2450:	40040513          	addi	a0,s0,1024
    2454:	00f10a23          	sb	a5,20(sp)
    2458:	c002                	sw	zero,0(sp)
    245a:	c202                	sw	zero,4(sp)
    245c:	c402                	sw	zero,8(sp)
    245e:	c802                	sw	zero,16(sp)
    2460:	268d                	jal	27c2 <ADC_Init>
    2462:	4581                	li	a1,0
    2464:	40040513          	addi	a0,s0,1024
    2468:	2975                	jal	2924 <ADC_InjectedDiscModeCmd>
    246a:	4581                	li	a1,0
    246c:	40040513          	addi	a0,s0,1024
    2470:	21e1                	jal	2938 <ADC_ExternalTrigInjectedConvCmd>
    2472:	4585                	li	a1,1
    2474:	40040513          	addi	a0,s0,1024
    2478:	2645                	jal	2818 <ADC_Cmd>
    247a:	4581                	li	a1,0
    247c:	40040513          	addi	a0,s0,1024
    2480:	29f9                	jal	295e <ADC_BufferCmd>
    2482:	40040513          	addi	a0,s0,1024
    2486:	264d                	jal	2828 <ADC_ResetCalibration>
    2488:	40040493          	addi	s1,s0,1024
    248c:	8526                	mv	a0,s1
    248e:	2655                	jal	2832 <ADC_GetResetCalibrationStatus>
    2490:	fd75                	bnez	a0,248c <ADC1_Init_Single+0x68>
    2492:	40040513          	addi	a0,s0,1024
    2496:	40012437          	lui	s0,0x40012
    249a:	2645                	jal	283a <ADC_StartCalibration>
    249c:	40040493          	addi	s1,s0,1024 # 40012400 <_eusrstack+0x2000d400>
    24a0:	8526                	mv	a0,s1
    24a2:	264d                	jal	2844 <ADC_GetCalibrationStatus>
    24a4:	fd75                	bnez	a0,24a0 <ADC1_Init_Single+0x7c>
    24a6:	4585                	li	a1,1
    24a8:	40040513          	addi	a0,s0,1024
    24ac:	294d                	jal	295e <ADC_BufferCmd>
    24ae:	6105                	addi	sp,sp,32
    24b0:	ca5fd06f          	j	154 <__riscv_restore_0>

000024b4 <main>:
    24b4:	c7dfd2ef          	jal	t0,130 <__riscv_save_0>
    24b8:	1141                	addi	sp,sp,-16
    24ba:	4505                	li	a0,1
    24bc:	25ad                	jal	2b26 <NVIC_PriorityGroupConfig>
    24be:	226d                	jal	2668 <SystemCoreClockUpdate>
    24c0:	401000ef          	jal	ra,30c0 <Delay_Init>
    24c4:	6571                	lui	a0,0x1c
    24c6:	20050513          	addi	a0,a0,512 # 1c200 <_data_lma+0x17dd0>
    24ca:	509000ef          	jal	ra,31d2 <USART_Printf_Init>
    24ce:	4585                	li	a1,1
    24d0:	4511                	li	a0,4
    24d2:	7c4000ef          	jal	ra,2c96 <RCC_APB2PeriphClockCmd>
    24d6:	4585                	li	a1,1
    24d8:	4521                	li	a0,8
    24da:	7bc000ef          	jal	ra,2c96 <RCC_APB2PeriphClockCmd>
    24de:	6505                	lui	a0,0x1
    24e0:	4585                	li	a1,1
    24e2:	80050513          	addi	a0,a0,-2048 # 800 <__stack_size>
    24e6:	7b0000ef          	jal	ra,2c96 <RCC_APB2PeriphClockCmd>
    24ea:	4585                	li	a1,1
    24ec:	20000513          	li	a0,512
    24f0:	7a6000ef          	jal	ra,2c96 <RCC_APB2PeriphClockCmd>
    24f4:	4585                	li	a1,1
    24f6:	4505                	li	a0,1
    24f8:	79e000ef          	jal	ra,2c96 <RCC_APB2PeriphClockCmd>
    24fc:	4585                	li	a1,1
    24fe:	4509                	li	a0,2
    2500:	7b4000ef          	jal	ra,2cb4 <RCC_APB1PeriphClockCmd>
    2504:	4585                	li	a1,1
    2506:	4505                	li	a0,1
    2508:	7ac000ef          	jal	ra,2cb4 <RCC_APB1PeriphClockCmd>
    250c:	4585                	li	a1,1
    250e:	4511                	li	a0,4
    2510:	7a4000ef          	jal	ra,2cb4 <RCC_APB1PeriphClockCmd>
    2514:	a30ff0ef          	jal	ra,1744 <USBFS_RCC_Init>
    2518:	9e7ff0ef          	jal	ra,1efe <usbSerial_begin>
    251c:	a05ff0ef          	jal	ra,1f20 <usbSerial_connected>
    2520:	dd75                	beqz	a0,251c <main+0x68>
    2522:	4791                	li	a5,4
    2524:	c63e                	sw	a5,12(sp)
    2526:	40011537          	lui	a0,0x40011
    252a:	478d                	li	a5,3
    252c:	004c                	addi	a1,sp,4
    252e:	c43e                	sw	a5,8(sp)
    2530:	80050513          	addi	a0,a0,-2048 # 40010800 <_eusrstack+0x2000b800>
    2534:	57fd                	li	a5,-1
    2536:	827c                	sh	a5,4(sp)
    2538:	29c1                	jal	2a08 <GPIO_Init>
    253a:	40000537          	lui	a0,0x40000
    253e:	40050513          	addi	a0,a0,1024 # 40000400 <_eusrstack+0x1fffb400>
    2542:	dbbff0ef          	jal	ra,22fc <CH_init>
    2546:	40000537          	lui	a0,0x40000
    254a:	db3ff0ef          	jal	ra,22fc <CH_init>
    254e:	40013537          	lui	a0,0x40013
    2552:	c0050513          	addi	a0,a0,-1024 # 40012c00 <_eusrstack+0x2000dc00>
    2556:	da7ff0ef          	jal	ra,22fc <CH_init>
    255a:	ecbff0ef          	jal	ra,2424 <ADC1_Init_Single>
    255e:	e51ff0ef          	jal	ra,23ae <TIM4_pulseio_init>
    2562:	00004537          	lui	a0,0x4
    2566:	2c450513          	addi	a0,a0,708 # 42c4 <MySerNumInfo+0x18>
    256a:	248010ef          	jal	ra,37b2 <puts>
    256e:	a5dff0ef          	jal	ra,1fca <usbSerial_available>
    2572:	c119                	beqz	a0,2578 <main+0xc4>
    2574:	fc9fd0ef          	jal	ra,53c <get_packet>
    2578:	b51ff0ef          	jal	ra,20c8 <usbSerial_flush>
    257c:	bfcd                	j	256e <main+0xba>

0000257e <SystemInit>:
    257e:	400217b7          	lui	a5,0x40021
    2582:	4398                	lw	a4,0(a5)
    2584:	f0ff06b7          	lui	a3,0xf0ff0
    2588:	1141                	addi	sp,sp,-16
    258a:	00176713          	ori	a4,a4,1
    258e:	c398                	sw	a4,0(a5)
    2590:	43d8                	lw	a4,4(a5)
    2592:	00020637          	lui	a2,0x20
    2596:	8f75                	and	a4,a4,a3
    2598:	c3d8                	sw	a4,4(a5)
    259a:	4398                	lw	a4,0(a5)
    259c:	fef706b7          	lui	a3,0xfef70
    25a0:	16fd                	addi	a3,a3,-1
    25a2:	8f75                	and	a4,a4,a3
    25a4:	c398                	sw	a4,0(a5)
    25a6:	4398                	lw	a4,0(a5)
    25a8:	fffc06b7          	lui	a3,0xfffc0
    25ac:	16fd                	addi	a3,a3,-1
    25ae:	8f75                	and	a4,a4,a3
    25b0:	c398                	sw	a4,0(a5)
    25b2:	43d8                	lw	a4,4(a5)
    25b4:	ff0106b7          	lui	a3,0xff010
    25b8:	16fd                	addi	a3,a3,-1
    25ba:	8f75                	and	a4,a4,a3
    25bc:	c3d8                	sw	a4,4(a5)
    25be:	009f0737          	lui	a4,0x9f0
    25c2:	c798                	sw	a4,8(a5)
    25c4:	c402                	sw	zero,8(sp)
    25c6:	c602                	sw	zero,12(sp)
    25c8:	4398                	lw	a4,0(a5)
    25ca:	66c1                	lui	a3,0x10
    25cc:	8f55                	or	a4,a4,a3
    25ce:	c398                	sw	a4,0(a5)
    25d0:	400216b7          	lui	a3,0x40021
    25d4:	6705                	lui	a4,0x1
    25d6:	429c                	lw	a5,0(a3)
    25d8:	8ff1                	and	a5,a5,a2
    25da:	c63e                	sw	a5,12(sp)
    25dc:	47a2                	lw	a5,8(sp)
    25de:	0785                	addi	a5,a5,1
    25e0:	c43e                	sw	a5,8(sp)
    25e2:	47b2                	lw	a5,12(sp)
    25e4:	e781                	bnez	a5,25ec <SystemInit+0x6e>
    25e6:	47a2                	lw	a5,8(sp)
    25e8:	fee797e3          	bne	a5,a4,25d6 <SystemInit+0x58>
    25ec:	400217b7          	lui	a5,0x40021
    25f0:	439c                	lw	a5,0(a5)
    25f2:	00e79713          	slli	a4,a5,0xe
    25f6:	06075763          	bgez	a4,2664 <SystemInit+0xe6>
    25fa:	4785                	li	a5,1
    25fc:	c63e                	sw	a5,12(sp)
    25fe:	4732                	lw	a4,12(sp)
    2600:	4785                	li	a5,1
    2602:	04f71f63          	bne	a4,a5,2660 <SystemInit+0xe2>
    2606:	400217b7          	lui	a5,0x40021
    260a:	43d8                	lw	a4,4(a5)
    260c:	ffc106b7          	lui	a3,0xffc10
    2610:	16fd                	addi	a3,a3,-1
    2612:	c3d8                	sw	a4,4(a5)
    2614:	43d8                	lw	a4,4(a5)
    2616:	c3d8                	sw	a4,4(a5)
    2618:	43d8                	lw	a4,4(a5)
    261a:	40076713          	ori	a4,a4,1024
    261e:	c3d8                	sw	a4,4(a5)
    2620:	43d8                	lw	a4,4(a5)
    2622:	8f75                	and	a4,a4,a3
    2624:	c3d8                	sw	a4,4(a5)
    2626:	43d8                	lw	a4,4(a5)
    2628:	003d06b7          	lui	a3,0x3d0
    262c:	8f55                	or	a4,a4,a3
    262e:	c3d8                	sw	a4,4(a5)
    2630:	4398                	lw	a4,0(a5)
    2632:	010006b7          	lui	a3,0x1000
    2636:	8f55                	or	a4,a4,a3
    2638:	c398                	sw	a4,0(a5)
    263a:	4398                	lw	a4,0(a5)
    263c:	00671693          	slli	a3,a4,0x6
    2640:	fe06dde3          	bgez	a3,263a <SystemInit+0xbc>
    2644:	43d8                	lw	a4,4(a5)
    2646:	400216b7          	lui	a3,0x40021
    264a:	9b71                	andi	a4,a4,-4
    264c:	c3d8                	sw	a4,4(a5)
    264e:	43d8                	lw	a4,4(a5)
    2650:	00276713          	ori	a4,a4,2
    2654:	c3d8                	sw	a4,4(a5)
    2656:	4721                	li	a4,8
    2658:	42dc                	lw	a5,4(a3)
    265a:	8bb1                	andi	a5,a5,12
    265c:	fee79ee3          	bne	a5,a4,2658 <SystemInit+0xda>
    2660:	0141                	addi	sp,sp,16
    2662:	8082                	ret
    2664:	c602                	sw	zero,12(sp)
    2666:	bf61                	j	25fe <SystemInit+0x80>

00002668 <SystemCoreClockUpdate>:
    2668:	400216b7          	lui	a3,0x40021
    266c:	42dc                	lw	a5,4(a3)
    266e:	4611                	li	a2,4
    2670:	8bb1                	andi	a5,a5,12
    2672:	80818713          	addi	a4,gp,-2040 # 20000088 <SystemCoreClock>
    2676:	00c78563          	beq	a5,a2,2680 <SystemCoreClockUpdate+0x18>
    267a:	4621                	li	a2,8
    267c:	02c78863          	beq	a5,a2,26ac <SystemCoreClockUpdate+0x44>
    2680:	007a17b7          	lui	a5,0x7a1
    2684:	20078793          	addi	a5,a5,512 # 7a1200 <_data_lma+0x79cdd0>
    2688:	c31c                	sw	a5,0(a4)
    268a:	400217b7          	lui	a5,0x40021
    268e:	43dc                	lw	a5,4(a5)
    2690:	8391                	srli	a5,a5,0x4
    2692:	00f7f693          	andi	a3,a5,15
    2696:	200007b7          	lui	a5,0x20000
    269a:	00078793          	mv	a5,a5
    269e:	97b6                	add	a5,a5,a3
    26a0:	2394                	lbu	a3,0(a5)
    26a2:	431c                	lw	a5,0(a4)
    26a4:	00d7d7b3          	srl	a5,a5,a3
    26a8:	c31c                	sw	a5,0(a4)
    26aa:	8082                	ret
    26ac:	42dc                	lw	a5,4(a3)
    26ae:	42d4                	lw	a3,4(a3)
    26b0:	6641                	lui	a2,0x10
    26b2:	83c9                	srli	a5,a5,0x12
    26b4:	8bbd                	andi	a5,a5,15
    26b6:	8ef1                	and	a3,a3,a2
    26b8:	0789                	addi	a5,a5,2
    26ba:	4645                	li	a2,17
    26bc:	00c79363          	bne	a5,a2,26c2 <SystemCoreClockUpdate+0x5a>
    26c0:	47c9                	li	a5,18
    26c2:	ee81                	bnez	a3,26da <SystemCoreClockUpdate+0x72>
    26c4:	400246b7          	lui	a3,0x40024
    26c8:	8006a683          	lw	a3,-2048(a3) # 40023800 <_eusrstack+0x2001e800>
    26cc:	8ac1                	andi	a3,a3,16
    26ce:	ce89                	beqz	a3,26e8 <SystemCoreClockUpdate+0x80>
    26d0:	007a16b7          	lui	a3,0x7a1
    26d4:	20068693          	addi	a3,a3,512 # 7a1200 <_data_lma+0x79cdd0>
    26d8:	a821                	j	26f0 <SystemCoreClockUpdate+0x88>
    26da:	400216b7          	lui	a3,0x40021
    26de:	42d4                	lw	a3,4(a3)
    26e0:	00e69613          	slli	a2,a3,0xe
    26e4:	fe0656e3          	bgez	a2,26d0 <SystemCoreClockUpdate+0x68>
    26e8:	003d16b7          	lui	a3,0x3d1
    26ec:	90068693          	addi	a3,a3,-1792 # 3d0900 <_data_lma+0x3cc4d0>
    26f0:	02d787b3          	mul	a5,a5,a3
    26f4:	bf51                	j	2688 <SystemCoreClockUpdate+0x20>

000026f6 <ADC1_2_IRQHandler>:
    26f6:	a001                	j	26f6 <ADC1_2_IRQHandler>

000026f8 <handle_reset>:
    26f8:	1fffe197          	auipc	gp,0x1fffe
    26fc:	18818193          	addi	gp,gp,392 # 20000880 <__global_pointer$>
    2700:	20003117          	auipc	sp,0x20003
    2704:	90010113          	addi	sp,sp,-1792 # 20005000 <_eusrstack>
    2708:	00002517          	auipc	a0,0x2
    270c:	d2850513          	addi	a0,a0,-728 # 4430 <_data_lma>
    2710:	1fffe597          	auipc	a1,0x1fffe
    2714:	8f058593          	addi	a1,a1,-1808 # 20000000 <_data_vma>
    2718:	82018613          	addi	a2,gp,-2016 # 200000a0 <_edata>
    271c:	00c5fa63          	bgeu	a1,a2,2730 <handle_reset+0x38>
    2720:	00052283          	lw	t0,0(a0)
    2724:	0055a023          	sw	t0,0(a1)
    2728:	0511                	addi	a0,a0,4
    272a:	0591                	addi	a1,a1,4
    272c:	fec5eae3          	bltu	a1,a2,2720 <handle_reset+0x28>
    2730:	82018513          	addi	a0,gp,-2016 # 200000a0 <_edata>
    2734:	20000597          	auipc	a1,0x20000
    2738:	22458593          	addi	a1,a1,548 # 20002958 <_ebss>
    273c:	00b57763          	bgeu	a0,a1,274a <handle_reset+0x52>
    2740:	00052023          	sw	zero,0(a0)
    2744:	0511                	addi	a0,a0,4
    2746:	feb56de3          	bltu	a0,a1,2740 <handle_reset+0x48>
    274a:	42fd                	li	t0,31
    274c:	bc029073          	csrw	0xbc0,t0
    2750:	428d                	li	t0,3
    2752:	80429073          	csrw	0x804,t0
    2756:	08800293          	li	t0,136
    275a:	30029073          	csrw	mstatus,t0
    275e:	ffffe297          	auipc	t0,0xffffe
    2762:	8a628293          	addi	t0,t0,-1882 # 4 <_einit>
    2766:	0032e293          	ori	t0,t0,3
    276a:	30529073          	csrw	mtvec,t0
    276e:	e11ff0ef          	jal	ra,257e <SystemInit>
    2772:	00000297          	auipc	t0,0x0
    2776:	d4228293          	addi	t0,t0,-702 # 24b4 <main>
    277a:	34129073          	csrw	mepc,t0
    277e:	30200073          	mret

00002782 <ADC_DeInit>:
    2782:	9affd2ef          	jal	t0,130 <__riscv_save_0>
    2786:	400127b7          	lui	a5,0x40012
    278a:	40078793          	addi	a5,a5,1024 # 40012400 <_eusrstack+0x2000d400>
    278e:	00f51c63          	bne	a0,a5,27a6 <ADC_DeInit+0x24>
    2792:	4585                	li	a1,1
    2794:	20000513          	li	a0,512
    2798:	2b2d                	jal	2cd2 <RCC_APB2PeriphResetCmd>
    279a:	4581                	li	a1,0
    279c:	20000513          	li	a0,512
    27a0:	2b0d                	jal	2cd2 <RCC_APB2PeriphResetCmd>
    27a2:	9b3fd06f          	j	154 <__riscv_restore_0>
    27a6:	400137b7          	lui	a5,0x40013
    27aa:	80078793          	addi	a5,a5,-2048 # 40012800 <_eusrstack+0x2000d800>
    27ae:	fef51ae3          	bne	a0,a5,27a2 <ADC_DeInit+0x20>
    27b2:	4585                	li	a1,1
    27b4:	40000513          	li	a0,1024
    27b8:	2b29                	jal	2cd2 <RCC_APB2PeriphResetCmd>
    27ba:	4581                	li	a1,0
    27bc:	40000513          	li	a0,1024
    27c0:	b7c5                	j	27a0 <ADC_DeInit+0x1e>

000027c2 <ADC_Init>:
    27c2:	415c                	lw	a5,4(a0)
    27c4:	e0f10737          	lui	a4,0xe0f10
    27c8:	eff70713          	addi	a4,a4,-257 # e0f0feff <_eusrstack+0xc0f0aeff>
    27cc:	4d94                	lw	a3,24(a1)
    27ce:	8f7d                	and	a4,a4,a5
    27d0:	419c                	lw	a5,0(a1)
    27d2:	8fd5                	or	a5,a5,a3
    27d4:	4dd4                	lw	a3,28(a1)
    27d6:	8fd5                	or	a5,a5,a3
    27d8:	41d4                	lw	a3,4(a1)
    27da:	06a2                	slli	a3,a3,0x8
    27dc:	8fd5                	or	a5,a5,a3
    27de:	8fd9                	or	a5,a5,a4
    27e0:	c15c                	sw	a5,4(a0)
    27e2:	451c                	lw	a5,8(a0)
    27e4:	fff1f737          	lui	a4,0xfff1f
    27e8:	7fd70713          	addi	a4,a4,2045 # fff1f7fd <_eusrstack+0xdff1a7fd>
    27ec:	45d4                	lw	a3,12(a1)
    27ee:	8f7d                	and	a4,a4,a5
    27f0:	499c                	lw	a5,16(a1)
    27f2:	8fd5                	or	a5,a5,a3
    27f4:	4594                	lw	a3,8(a1)
    27f6:	0686                	slli	a3,a3,0x1
    27f8:	8fd5                	or	a5,a5,a3
    27fa:	8fd9                	or	a5,a5,a4
    27fc:	c51c                	sw	a5,8(a0)
    27fe:	555c                	lw	a5,44(a0)
    2800:	ff100737          	lui	a4,0xff100
    2804:	177d                	addi	a4,a4,-1
    2806:	8f7d                	and	a4,a4,a5
    2808:	29dc                	lbu	a5,20(a1)
    280a:	17fd                	addi	a5,a5,-1
    280c:	0ff7f793          	andi	a5,a5,255
    2810:	07d2                	slli	a5,a5,0x14
    2812:	8fd9                	or	a5,a5,a4
    2814:	d55c                	sw	a5,44(a0)
    2816:	8082                	ret

00002818 <ADC_Cmd>:
    2818:	451c                	lw	a5,8(a0)
    281a:	c589                	beqz	a1,2824 <ADC_Cmd+0xc>
    281c:	0017e793          	ori	a5,a5,1
    2820:	c51c                	sw	a5,8(a0)
    2822:	8082                	ret
    2824:	9bf9                	andi	a5,a5,-2
    2826:	bfed                	j	2820 <ADC_Cmd+0x8>

00002828 <ADC_ResetCalibration>:
    2828:	451c                	lw	a5,8(a0)
    282a:	0087e793          	ori	a5,a5,8
    282e:	c51c                	sw	a5,8(a0)
    2830:	8082                	ret

00002832 <ADC_GetResetCalibrationStatus>:
    2832:	4508                	lw	a0,8(a0)
    2834:	810d                	srli	a0,a0,0x3
    2836:	8905                	andi	a0,a0,1
    2838:	8082                	ret

0000283a <ADC_StartCalibration>:
    283a:	451c                	lw	a5,8(a0)
    283c:	0047e793          	ori	a5,a5,4
    2840:	c51c                	sw	a5,8(a0)
    2842:	8082                	ret

00002844 <ADC_GetCalibrationStatus>:
    2844:	4508                	lw	a0,8(a0)
    2846:	8109                	srli	a0,a0,0x2
    2848:	8905                	andi	a0,a0,1
    284a:	8082                	ret

0000284c <ADC_SoftwareStartConvCmd>:
    284c:	451c                	lw	a5,8(a0)
    284e:	c591                	beqz	a1,285a <ADC_SoftwareStartConvCmd+0xe>
    2850:	00500737          	lui	a4,0x500
    2854:	8fd9                	or	a5,a5,a4
    2856:	c51c                	sw	a5,8(a0)
    2858:	8082                	ret
    285a:	ffb00737          	lui	a4,0xffb00
    285e:	177d                	addi	a4,a4,-1
    2860:	8ff9                	and	a5,a5,a4
    2862:	bfd5                	j	2856 <ADC_SoftwareStartConvCmd+0xa>

00002864 <ADC_RegularChannelConfig>:
    2864:	47a5                	li	a5,9
    2866:	04b7f763          	bgeu	a5,a1,28b4 <ADC_RegularChannelConfig+0x50>
    286a:	478d                	li	a5,3
    286c:	ff658713          	addi	a4,a1,-10
    2870:	02f70733          	mul	a4,a4,a5
    2874:	00c52803          	lw	a6,12(a0)
    2878:	479d                	li	a5,7
    287a:	00e797b3          	sll	a5,a5,a4
    287e:	fff7c793          	not	a5,a5
    2882:	0107f7b3          	and	a5,a5,a6
    2886:	00e696b3          	sll	a3,a3,a4
    288a:	8edd                	or	a3,a3,a5
    288c:	c554                	sw	a3,12(a0)
    288e:	4799                	li	a5,6
    2890:	04c7e363          	bltu	a5,a2,28d6 <ADC_RegularChannelConfig+0x72>
    2894:	4795                	li	a5,5
    2896:	167d                	addi	a2,a2,-1
    2898:	02f60633          	mul	a2,a2,a5
    289c:	5958                	lw	a4,52(a0)
    289e:	47fd                	li	a5,31
    28a0:	00c797b3          	sll	a5,a5,a2
    28a4:	fff7c793          	not	a5,a5
    28a8:	8ff9                	and	a5,a5,a4
    28aa:	00c59633          	sll	a2,a1,a2
    28ae:	8e5d                	or	a2,a2,a5
    28b0:	d950                	sw	a2,52(a0)
    28b2:	8082                	ret
    28b4:	470d                	li	a4,3
    28b6:	02e58733          	mul	a4,a1,a4
    28ba:	01052803          	lw	a6,16(a0)
    28be:	479d                	li	a5,7
    28c0:	00e797b3          	sll	a5,a5,a4
    28c4:	fff7c793          	not	a5,a5
    28c8:	0107f7b3          	and	a5,a5,a6
    28cc:	00e696b3          	sll	a3,a3,a4
    28d0:	8edd                	or	a3,a3,a5
    28d2:	c914                	sw	a3,16(a0)
    28d4:	bf6d                	j	288e <ADC_RegularChannelConfig+0x2a>
    28d6:	47b1                	li	a5,12
    28d8:	02c7e263          	bltu	a5,a2,28fc <ADC_RegularChannelConfig+0x98>
    28dc:	4795                	li	a5,5
    28de:	1665                	addi	a2,a2,-7
    28e0:	02f60633          	mul	a2,a2,a5
    28e4:	5918                	lw	a4,48(a0)
    28e6:	47fd                	li	a5,31
    28e8:	00c797b3          	sll	a5,a5,a2
    28ec:	fff7c793          	not	a5,a5
    28f0:	8ff9                	and	a5,a5,a4
    28f2:	00c59633          	sll	a2,a1,a2
    28f6:	8e5d                	or	a2,a2,a5
    28f8:	d910                	sw	a2,48(a0)
    28fa:	8082                	ret
    28fc:	4795                	li	a5,5
    28fe:	164d                	addi	a2,a2,-13
    2900:	02f60633          	mul	a2,a2,a5
    2904:	5558                	lw	a4,44(a0)
    2906:	47fd                	li	a5,31
    2908:	00c797b3          	sll	a5,a5,a2
    290c:	fff7c793          	not	a5,a5
    2910:	8ff9                	and	a5,a5,a4
    2912:	00c595b3          	sll	a1,a1,a2
    2916:	8ddd                	or	a1,a1,a5
    2918:	d54c                	sw	a1,44(a0)
    291a:	8082                	ret

0000291c <ADC_GetConversionValue>:
    291c:	4568                	lw	a0,76(a0)
    291e:	0542                	slli	a0,a0,0x10
    2920:	8141                	srli	a0,a0,0x10
    2922:	8082                	ret

00002924 <ADC_InjectedDiscModeCmd>:
    2924:	415c                	lw	a5,4(a0)
    2926:	c589                	beqz	a1,2930 <ADC_InjectedDiscModeCmd+0xc>
    2928:	6705                	lui	a4,0x1
    292a:	8fd9                	or	a5,a5,a4
    292c:	c15c                	sw	a5,4(a0)
    292e:	8082                	ret
    2930:	777d                	lui	a4,0xfffff
    2932:	177d                	addi	a4,a4,-1
    2934:	8ff9                	and	a5,a5,a4
    2936:	bfdd                	j	292c <ADC_InjectedDiscModeCmd+0x8>

00002938 <ADC_ExternalTrigInjectedConvCmd>:
    2938:	451c                	lw	a5,8(a0)
    293a:	c589                	beqz	a1,2944 <ADC_ExternalTrigInjectedConvCmd+0xc>
    293c:	6721                	lui	a4,0x8
    293e:	8fd9                	or	a5,a5,a4
    2940:	c51c                	sw	a5,8(a0)
    2942:	8082                	ret
    2944:	7761                	lui	a4,0xffff8
    2946:	177d                	addi	a4,a4,-1
    2948:	8ff9                	and	a5,a5,a4
    294a:	bfdd                	j	2940 <ADC_ExternalTrigInjectedConvCmd+0x8>

0000294c <ADC_GetFlagStatus>:
    294c:	4108                	lw	a0,0(a0)
    294e:	8d6d                	and	a0,a0,a1
    2950:	00a03533          	snez	a0,a0
    2954:	8082                	ret

00002956 <ADC_ClearFlag>:
    2956:	fff5c593          	not	a1,a1
    295a:	c10c                	sw	a1,0(a0)
    295c:	8082                	ret

0000295e <ADC_BufferCmd>:
    295e:	415c                	lw	a5,4(a0)
    2960:	c591                	beqz	a1,296c <ADC_BufferCmd+0xe>
    2962:	04000737          	lui	a4,0x4000
    2966:	8fd9                	or	a5,a5,a4
    2968:	c15c                	sw	a5,4(a0)
    296a:	8082                	ret
    296c:	fc000737          	lui	a4,0xfc000
    2970:	177d                	addi	a4,a4,-1
    2972:	8ff9                	and	a5,a5,a4
    2974:	bfd5                	j	2968 <ADC_BufferCmd+0xa>

00002976 <EXTI_Init>:
    2976:	4158                	lw	a4,4(a0)
    2978:	00052803          	lw	a6,0(a0)
    297c:	454c                	lw	a1,12(a0)
    297e:	40010637          	lui	a2,0x40010
    2982:	40060793          	addi	a5,a2,1024 # 40010400 <_eusrstack+0x2000b400>
    2986:	973e                	add	a4,a4,a5
    2988:	fff84693          	not	a3,a6
    298c:	c5b1                	beqz	a1,29d8 <EXTI_Init+0x62>
    298e:	40062583          	lw	a1,1024(a2)
    2992:	8df5                	and	a1,a1,a3
    2994:	40b62023          	sw	a1,1024(a2)
    2998:	43d0                	lw	a2,4(a5)
    299a:	8ef1                	and	a3,a3,a2
    299c:	c3d4                	sw	a3,4(a5)
    299e:	4314                	lw	a3,0(a4)
    29a0:	0106e6b3          	or	a3,a3,a6
    29a4:	c314                	sw	a3,0(a4)
    29a6:	4118                	lw	a4,0(a0)
    29a8:	4790                	lw	a2,8(a5)
    29aa:	fff74693          	not	a3,a4
    29ae:	8e75                	and	a2,a2,a3
    29b0:	c790                	sw	a2,8(a5)
    29b2:	47d0                	lw	a2,12(a5)
    29b4:	8ef1                	and	a3,a3,a2
    29b6:	c7d4                	sw	a3,12(a5)
    29b8:	4514                	lw	a3,8(a0)
    29ba:	4641                	li	a2,16
    29bc:	00c69963          	bne	a3,a2,29ce <EXTI_Init+0x58>
    29c0:	4794                	lw	a3,8(a5)
    29c2:	8ed9                	or	a3,a3,a4
    29c4:	c794                	sw	a3,8(a5)
    29c6:	47d4                	lw	a3,12(a5)
    29c8:	8f55                	or	a4,a4,a3
    29ca:	c7d8                	sw	a4,12(a5)
    29cc:	8082                	ret
    29ce:	97b6                	add	a5,a5,a3
    29d0:	4394                	lw	a3,0(a5)
    29d2:	8f55                	or	a4,a4,a3
    29d4:	c398                	sw	a4,0(a5)
    29d6:	8082                	ret
    29d8:	431c                	lw	a5,0(a4)
    29da:	8ff5                	and	a5,a5,a3
    29dc:	c31c                	sw	a5,0(a4)
    29de:	8082                	ret

000029e0 <EXTI_GetITStatus>:
    29e0:	400107b7          	lui	a5,0x40010
    29e4:	40078713          	addi	a4,a5,1024 # 40010400 <_eusrstack+0x2000b400>
    29e8:	4007a783          	lw	a5,1024(a5)
    29ec:	4b58                	lw	a4,20(a4)
    29ee:	8f69                	and	a4,a4,a0
    29f0:	c709                	beqz	a4,29fa <EXTI_GetITStatus+0x1a>
    29f2:	8d7d                	and	a0,a0,a5
    29f4:	00a03533          	snez	a0,a0
    29f8:	8082                	ret
    29fa:	4501                	li	a0,0
    29fc:	8082                	ret

000029fe <EXTI_ClearITPendingBit>:
    29fe:	400107b7          	lui	a5,0x40010
    2a02:	40a7aa23          	sw	a0,1044(a5) # 40010414 <_eusrstack+0x2000b414>
    2a06:	8082                	ret

00002a08 <GPIO_Init>:
    2a08:	459c                	lw	a5,8(a1)
    2a0a:	0107f713          	andi	a4,a5,16
    2a0e:	00f7f813          	andi	a6,a5,15
    2a12:	c701                	beqz	a4,2a1a <GPIO_Init+0x12>
    2a14:	41d8                	lw	a4,4(a1)
    2a16:	00e86833          	or	a6,a6,a4
    2a1a:	40022737          	lui	a4,0x40022
    2a1e:	5b14                	lw	a3,48(a4)
    2a20:	0f000737          	lui	a4,0xf000
    2a24:	8f75                	and	a4,a4,a3
    2a26:	eb4d                	bnez	a4,2ad8 <GPIO_Init+0xd0>
    2a28:	4685                	li	a3,1
    2a2a:	84d18823          	sb	a3,-1968(gp) # 200000d0 <MCU_Version>
    2a2e:	40011737          	lui	a4,0x40011
    2a32:	00e51563          	bne	a0,a4,2a3c <GPIO_Init+0x34>
    2a36:	219a                	lhu	a4,0(a1)
    2a38:	8335                	srli	a4,a4,0xd
    2a3a:	a19a                	sh	a4,0(a1)
    2a3c:	218e                	lhu	a1,0(a1)
    2a3e:	0ff5f713          	andi	a4,a1,255
    2a42:	c339                	beqz	a4,2a88 <GPIO_Init+0x80>
    2a44:	4118                	lw	a4,0(a0)
    2a46:	4681                	li	a3,0
    2a48:	4e85                	li	t4,1
    2a4a:	4f3d                	li	t5,15
    2a4c:	02800f93          	li	t6,40
    2a50:	04800293          	li	t0,72
    2a54:	4e21                	li	t3,8
    2a56:	00de9633          	sll	a2,t4,a3
    2a5a:	00c5f8b3          	and	a7,a1,a2
    2a5e:	03161163          	bne	a2,a7,2a80 <GPIO_Init+0x78>
    2a62:	00269893          	slli	a7,a3,0x2
    2a66:	011f1333          	sll	t1,t5,a7
    2a6a:	fff34313          	not	t1,t1
    2a6e:	00e37733          	and	a4,t1,a4
    2a72:	011818b3          	sll	a7,a6,a7
    2a76:	00e8e733          	or	a4,a7,a4
    2a7a:	07f79763          	bne	a5,t6,2ae8 <GPIO_Init+0xe0>
    2a7e:	c950                	sw	a2,20(a0)
    2a80:	0685                	addi	a3,a3,1
    2a82:	fdc69ae3          	bne	a3,t3,2a56 <GPIO_Init+0x4e>
    2a86:	c118                	sw	a4,0(a0)
    2a88:	0ff00713          	li	a4,255
    2a8c:	04b77563          	bgeu	a4,a1,2ad6 <GPIO_Init+0xce>
    2a90:	4154                	lw	a3,4(a0)
    2a92:	4621                	li	a2,8
    2a94:	4e85                	li	t4,1
    2a96:	4f3d                	li	t5,15
    2a98:	02800f93          	li	t6,40
    2a9c:	04800293          	li	t0,72
    2aa0:	4e41                	li	t3,16
    2aa2:	00ce98b3          	sll	a7,t4,a2
    2aa6:	0115f733          	and	a4,a1,a7
    2aaa:	02e89263          	bne	a7,a4,2ace <GPIO_Init+0xc6>
    2aae:	00261713          	slli	a4,a2,0x2
    2ab2:	1701                	addi	a4,a4,-32
    2ab4:	00ef1333          	sll	t1,t5,a4
    2ab8:	fff34313          	not	t1,t1
    2abc:	00d376b3          	and	a3,t1,a3
    2ac0:	00e81733          	sll	a4,a6,a4
    2ac4:	8ed9                	or	a3,a3,a4
    2ac6:	03f79563          	bne	a5,t6,2af0 <GPIO_Init+0xe8>
    2aca:	01152a23          	sw	a7,20(a0)
    2ace:	0605                	addi	a2,a2,1
    2ad0:	fdc619e3          	bne	a2,t3,2aa2 <GPIO_Init+0x9a>
    2ad4:	c154                	sw	a3,4(a0)
    2ad6:	8082                	ret
    2ad8:	40011737          	lui	a4,0x40011
    2adc:	f6e510e3          	bne	a0,a4,2a3c <GPIO_Init+0x34>
    2ae0:	8501c703          	lbu	a4,-1968(gp) # 200000d0 <MCU_Version>
    2ae4:	df21                	beqz	a4,2a3c <GPIO_Init+0x34>
    2ae6:	bf81                	j	2a36 <GPIO_Init+0x2e>
    2ae8:	f8579ce3          	bne	a5,t0,2a80 <GPIO_Init+0x78>
    2aec:	c910                	sw	a2,16(a0)
    2aee:	bf49                	j	2a80 <GPIO_Init+0x78>
    2af0:	fc579fe3          	bne	a5,t0,2ace <GPIO_Init+0xc6>
    2af4:	01152823          	sw	a7,16(a0)
    2af8:	bfd9                	j	2ace <GPIO_Init+0xc6>

00002afa <GPIO_EXTILineConfig>:
    2afa:	0fc5f713          	andi	a4,a1,252
    2afe:	0035f793          	andi	a5,a1,3
    2b02:	400105b7          	lui	a1,0x40010
    2b06:	95ba                	add	a1,a1,a4
    2b08:	4594                	lw	a3,8(a1)
    2b0a:	078a                	slli	a5,a5,0x2
    2b0c:	473d                	li	a4,15
    2b0e:	00f71733          	sll	a4,a4,a5
    2b12:	fff74713          	not	a4,a4
    2b16:	8f75                	and	a4,a4,a3
    2b18:	c598                	sw	a4,8(a1)
    2b1a:	4598                	lw	a4,8(a1)
    2b1c:	00f51533          	sll	a0,a0,a5
    2b20:	8d59                	or	a0,a0,a4
    2b22:	c588                	sw	a0,8(a1)
    2b24:	8082                	ret

00002b26 <NVIC_PriorityGroupConfig>:
    2b26:	84a1aa23          	sw	a0,-1964(gp) # 200000d4 <NVIC_Priority_Group>
    2b2a:	8082                	ret

00002b2c <NVIC_Init>:
    2b2c:	8541a703          	lw	a4,-1964(gp) # 200000d4 <NVIC_Priority_Group>
    2b30:	4785                	li	a5,1
    2b32:	2114                	lbu	a3,0(a0)
    2b34:	02f71063          	bne	a4,a5,2b54 <NVIC_Init+0x28>
    2b38:	311c                	lbu	a5,1(a0)
    2b3a:	02e79c63          	bne	a5,a4,2b72 <NVIC_Init+0x46>
    2b3e:	213c                	lbu	a5,2(a0)
    2b40:	0796                	slli	a5,a5,0x5
    2b42:	f807e793          	ori	a5,a5,-128
    2b46:	e000e737          	lui	a4,0xe000e
    2b4a:	0ff7f793          	andi	a5,a5,255
    2b4e:	9736                	add	a4,a4,a3
    2b50:	40f70023          	sb	a5,1024(a4) # e000e400 <_eusrstack+0xc0009400>
    2b54:	4705                	li	a4,1
    2b56:	0056d793          	srli	a5,a3,0x5
    2b5a:	00d71733          	sll	a4,a4,a3
    2b5e:	4154                	lw	a3,4(a0)
    2b60:	ce89                	beqz	a3,2b7a <NVIC_Init+0x4e>
    2b62:	04078793          	addi	a5,a5,64
    2b66:	078a                	slli	a5,a5,0x2
    2b68:	e000e6b7          	lui	a3,0xe000e
    2b6c:	97b6                	add	a5,a5,a3
    2b6e:	c398                	sw	a4,0(a5)
    2b70:	8082                	ret
    2b72:	f3ed                	bnez	a5,2b54 <NVIC_Init+0x28>
    2b74:	213c                	lbu	a5,2(a0)
    2b76:	0796                	slli	a5,a5,0x5
    2b78:	b7f9                	j	2b46 <NVIC_Init+0x1a>
    2b7a:	06078793          	addi	a5,a5,96
    2b7e:	e000e6b7          	lui	a3,0xe000e
    2b82:	078a                	slli	a5,a5,0x2
    2b84:	97b6                	add	a5,a5,a3
    2b86:	c398                	sw	a4,0(a5)
    2b88:	0000100f          	fence.i
    2b8c:	8082                	ret

00002b8e <RCC_USBCLKConfig>:
    2b8e:	400217b7          	lui	a5,0x40021
    2b92:	43d8                	lw	a4,4(a5)
    2b94:	ff4006b7          	lui	a3,0xff400
    2b98:	16fd                	addi	a3,a3,-1
    2b9a:	8f75                	and	a4,a4,a3
    2b9c:	c3d8                	sw	a4,4(a5)
    2b9e:	43d8                	lw	a4,4(a5)
    2ba0:	055a                	slli	a0,a0,0x16
    2ba2:	8d59                	or	a0,a0,a4
    2ba4:	c3c8                	sw	a0,4(a5)
    2ba6:	8082                	ret

00002ba8 <RCC_ADCCLKConfig>:
    2ba8:	400216b7          	lui	a3,0x40021
    2bac:	42dc                	lw	a5,4(a3)
    2bae:	7751                	lui	a4,0xffff4
    2bb0:	177d                	addi	a4,a4,-1
    2bb2:	8ff9                	and	a5,a5,a4
    2bb4:	8d5d                	or	a0,a0,a5
    2bb6:	c2c8                	sw	a0,4(a3)
    2bb8:	8082                	ret

00002bba <RCC_GetClocksFreq>:
    2bba:	40021737          	lui	a4,0x40021
    2bbe:	435c                	lw	a5,4(a4)
    2bc0:	4691                	li	a3,4
    2bc2:	8bb1                	andi	a5,a5,12
    2bc4:	00d78563          	beq	a5,a3,2bce <RCC_GetClocksFreq+0x14>
    2bc8:	46a1                	li	a3,8
    2bca:	06d78263          	beq	a5,a3,2c2e <RCC_GetClocksFreq+0x74>
    2bce:	007a17b7          	lui	a5,0x7a1
    2bd2:	20078793          	addi	a5,a5,512 # 7a1200 <_data_lma+0x79cdd0>
    2bd6:	c11c                	sw	a5,0(a0)
    2bd8:	40021637          	lui	a2,0x40021
    2bdc:	425c                	lw	a5,4(a2)
    2bde:	20000737          	lui	a4,0x20000
    2be2:	01070713          	addi	a4,a4,16 # 20000010 <APBAHBPrescTable>
    2be6:	8391                	srli	a5,a5,0x4
    2be8:	8bbd                	andi	a5,a5,15
    2bea:	97ba                	add	a5,a5,a4
    2bec:	2394                	lbu	a3,0(a5)
    2bee:	411c                	lw	a5,0(a0)
    2bf0:	00d7d7b3          	srl	a5,a5,a3
    2bf4:	c15c                	sw	a5,4(a0)
    2bf6:	4254                	lw	a3,4(a2)
    2bf8:	82a1                	srli	a3,a3,0x8
    2bfa:	8a9d                	andi	a3,a3,7
    2bfc:	96ba                	add	a3,a3,a4
    2bfe:	2294                	lbu	a3,0(a3)
    2c00:	00d7d6b3          	srl	a3,a5,a3
    2c04:	c514                	sw	a3,8(a0)
    2c06:	4254                	lw	a3,4(a2)
    2c08:	82ad                	srli	a3,a3,0xb
    2c0a:	8a9d                	andi	a3,a3,7
    2c0c:	9736                	add	a4,a4,a3
    2c0e:	2318                	lbu	a4,0(a4)
    2c10:	00e7d7b3          	srl	a5,a5,a4
    2c14:	c55c                	sw	a5,12(a0)
    2c16:	4258                	lw	a4,4(a2)
    2c18:	8339                	srli	a4,a4,0xe
    2c1a:	00377693          	andi	a3,a4,3
    2c1e:	80c18713          	addi	a4,gp,-2036 # 2000008c <ADCPrescTable>
    2c22:	9736                	add	a4,a4,a3
    2c24:	2318                	lbu	a4,0(a4)
    2c26:	02e7d7b3          	divu	a5,a5,a4
    2c2a:	c91c                	sw	a5,16(a0)
    2c2c:	8082                	ret
    2c2e:	435c                	lw	a5,4(a4)
    2c30:	4358                	lw	a4,4(a4)
    2c32:	66c1                	lui	a3,0x10
    2c34:	83c9                	srli	a5,a5,0x12
    2c36:	8bbd                	andi	a5,a5,15
    2c38:	8f75                	and	a4,a4,a3
    2c3a:	0789                	addi	a5,a5,2
    2c3c:	46c5                	li	a3,17
    2c3e:	00d79363          	bne	a5,a3,2c44 <RCC_GetClocksFreq+0x8a>
    2c42:	47c9                	li	a5,18
    2c44:	ef01                	bnez	a4,2c5c <RCC_GetClocksFreq+0xa2>
    2c46:	40024737          	lui	a4,0x40024
    2c4a:	80072703          	lw	a4,-2048(a4) # 40023800 <_eusrstack+0x2001e800>
    2c4e:	8b41                	andi	a4,a4,16
    2c50:	cf09                	beqz	a4,2c6a <RCC_GetClocksFreq+0xb0>
    2c52:	007a1737          	lui	a4,0x7a1
    2c56:	20070713          	addi	a4,a4,512 # 7a1200 <_data_lma+0x79cdd0>
    2c5a:	a821                	j	2c72 <RCC_GetClocksFreq+0xb8>
    2c5c:	40021737          	lui	a4,0x40021
    2c60:	4358                	lw	a4,4(a4)
    2c62:	00e71693          	slli	a3,a4,0xe
    2c66:	fe06d6e3          	bgez	a3,2c52 <RCC_GetClocksFreq+0x98>
    2c6a:	003d1737          	lui	a4,0x3d1
    2c6e:	90070713          	addi	a4,a4,-1792 # 3d0900 <_data_lma+0x3cc4d0>
    2c72:	02e787b3          	mul	a5,a5,a4
    2c76:	b785                	j	2bd6 <RCC_GetClocksFreq+0x1c>

00002c78 <RCC_AHBPeriphClockCmd>:
    2c78:	c599                	beqz	a1,2c86 <RCC_AHBPeriphClockCmd+0xe>
    2c7a:	40021737          	lui	a4,0x40021
    2c7e:	4b5c                	lw	a5,20(a4)
    2c80:	8d5d                	or	a0,a0,a5
    2c82:	cb48                	sw	a0,20(a4)
    2c84:	8082                	ret
    2c86:	400217b7          	lui	a5,0x40021
    2c8a:	4bd8                	lw	a4,20(a5)
    2c8c:	fff54513          	not	a0,a0
    2c90:	8d79                	and	a0,a0,a4
    2c92:	cbc8                	sw	a0,20(a5)
    2c94:	8082                	ret

00002c96 <RCC_APB2PeriphClockCmd>:
    2c96:	c599                	beqz	a1,2ca4 <RCC_APB2PeriphClockCmd+0xe>
    2c98:	40021737          	lui	a4,0x40021
    2c9c:	4f1c                	lw	a5,24(a4)
    2c9e:	8d5d                	or	a0,a0,a5
    2ca0:	cf08                	sw	a0,24(a4)
    2ca2:	8082                	ret
    2ca4:	400217b7          	lui	a5,0x40021
    2ca8:	4f98                	lw	a4,24(a5)
    2caa:	fff54513          	not	a0,a0
    2cae:	8d79                	and	a0,a0,a4
    2cb0:	cf88                	sw	a0,24(a5)
    2cb2:	8082                	ret

00002cb4 <RCC_APB1PeriphClockCmd>:
    2cb4:	c599                	beqz	a1,2cc2 <RCC_APB1PeriphClockCmd+0xe>
    2cb6:	40021737          	lui	a4,0x40021
    2cba:	4f5c                	lw	a5,28(a4)
    2cbc:	8d5d                	or	a0,a0,a5
    2cbe:	cf48                	sw	a0,28(a4)
    2cc0:	8082                	ret
    2cc2:	400217b7          	lui	a5,0x40021
    2cc6:	4fd8                	lw	a4,28(a5)
    2cc8:	fff54513          	not	a0,a0
    2ccc:	8d79                	and	a0,a0,a4
    2cce:	cfc8                	sw	a0,28(a5)
    2cd0:	8082                	ret

00002cd2 <RCC_APB2PeriphResetCmd>:
    2cd2:	c599                	beqz	a1,2ce0 <RCC_APB2PeriphResetCmd+0xe>
    2cd4:	40021737          	lui	a4,0x40021
    2cd8:	475c                	lw	a5,12(a4)
    2cda:	8d5d                	or	a0,a0,a5
    2cdc:	c748                	sw	a0,12(a4)
    2cde:	8082                	ret
    2ce0:	400217b7          	lui	a5,0x40021
    2ce4:	47d8                	lw	a4,12(a5)
    2ce6:	fff54513          	not	a0,a0
    2cea:	8d79                	and	a0,a0,a4
    2cec:	c7c8                	sw	a0,12(a5)
    2cee:	8082                	ret

00002cf0 <TIM_TimeBaseInit>:
    2cf0:	211e                	lhu	a5,0(a0)
    2cf2:	40013737          	lui	a4,0x40013
    2cf6:	c0070713          	addi	a4,a4,-1024 # 40012c00 <_eusrstack+0x2000dc00>
    2cfa:	07c2                	slli	a5,a5,0x10
    2cfc:	83c1                	srli	a5,a5,0x10
    2cfe:	02e50063          	beq	a0,a4,2d1e <TIM_TimeBaseInit+0x2e>
    2d02:	40000737          	lui	a4,0x40000
    2d06:	00e50c63          	beq	a0,a4,2d1e <TIM_TimeBaseInit+0x2e>
    2d0a:	40070713          	addi	a4,a4,1024 # 40000400 <_eusrstack+0x1fffb400>
    2d0e:	00e50863          	beq	a0,a4,2d1e <TIM_TimeBaseInit+0x2e>
    2d12:	40001737          	lui	a4,0x40001
    2d16:	80070713          	addi	a4,a4,-2048 # 40000800 <_eusrstack+0x1fffb800>
    2d1a:	00e51663          	bne	a0,a4,2d26 <TIM_TimeBaseInit+0x36>
    2d1e:	21ba                	lhu	a4,2(a1)
    2d20:	f8f7f793          	andi	a5,a5,-113
    2d24:	8fd9                	or	a5,a5,a4
    2d26:	21fa                	lhu	a4,6(a1)
    2d28:	cff7f793          	andi	a5,a5,-769
    2d2c:	07c2                	slli	a5,a5,0x10
    2d2e:	83c1                	srli	a5,a5,0x10
    2d30:	8fd9                	or	a5,a5,a4
    2d32:	a11e                	sh	a5,0(a0)
    2d34:	21de                	lhu	a5,4(a1)
    2d36:	b55e                	sh	a5,44(a0)
    2d38:	219e                	lhu	a5,0(a1)
    2d3a:	b51e                	sh	a5,40(a0)
    2d3c:	400137b7          	lui	a5,0x40013
    2d40:	c0078793          	addi	a5,a5,-1024 # 40012c00 <_eusrstack+0x2000dc00>
    2d44:	00f51463          	bne	a0,a5,2d4c <TIM_TimeBaseInit+0x5c>
    2d48:	259c                	lbu	a5,8(a1)
    2d4a:	b91e                	sh	a5,48(a0)
    2d4c:	4785                	li	a5,1
    2d4e:	a95e                	sh	a5,20(a0)
    2d50:	8082                	ret

00002d52 <TIM_OC1Init>:
    2d52:	311e                	lhu	a5,32(a0)
    2d54:	2192                	lhu	a2,0(a1)
    2d56:	0025d803          	lhu	a6,2(a1) # 40010002 <_eusrstack+0x2000b002>
    2d5a:	07c2                	slli	a5,a5,0x10
    2d5c:	83c1                	srli	a5,a5,0x10
    2d5e:	9bf9                	andi	a5,a5,-2
    2d60:	07c2                	slli	a5,a5,0x10
    2d62:	83c1                	srli	a5,a5,0x10
    2d64:	b11e                	sh	a5,32(a0)
    2d66:	311e                	lhu	a5,32(a0)
    2d68:	2156                	lhu	a3,4(a0)
    2d6a:	2d1a                	lhu	a4,24(a0)
    2d6c:	07c2                	slli	a5,a5,0x10
    2d6e:	83c1                	srli	a5,a5,0x10
    2d70:	0742                	slli	a4,a4,0x10
    2d72:	8341                	srli	a4,a4,0x10
    2d74:	f8c77713          	andi	a4,a4,-116
    2d78:	8f51                	or	a4,a4,a2
    2d7a:	2592                	lhu	a2,8(a1)
    2d7c:	9bf5                	andi	a5,a5,-3
    2d7e:	06c2                	slli	a3,a3,0x10
    2d80:	01066633          	or	a2,a2,a6
    2d84:	8fd1                	or	a5,a5,a2
    2d86:	40013637          	lui	a2,0x40013
    2d8a:	c0060613          	addi	a2,a2,-1024 # 40012c00 <_eusrstack+0x2000dc00>
    2d8e:	82c1                	srli	a3,a3,0x10
    2d90:	02c51063          	bne	a0,a2,2db0 <TIM_OC1Init+0x5e>
    2d94:	25b2                	lhu	a2,10(a1)
    2d96:	9bdd                	andi	a5,a5,-9
    2d98:	00e5d803          	lhu	a6,14(a1)
    2d9c:	8fd1                	or	a5,a5,a2
    2d9e:	21d2                	lhu	a2,4(a1)
    2da0:	9bed                	andi	a5,a5,-5
    2da2:	cff6f693          	andi	a3,a3,-769
    2da6:	8fd1                	or	a5,a5,a2
    2da8:	25d2                	lhu	a2,12(a1)
    2daa:	01066633          	or	a2,a2,a6
    2dae:	8ed1                	or	a3,a3,a2
    2db0:	a156                	sh	a3,4(a0)
    2db2:	ad1a                	sh	a4,24(a0)
    2db4:	21fa                	lhu	a4,6(a1)
    2db6:	b95a                	sh	a4,52(a0)
    2db8:	b11e                	sh	a5,32(a0)
    2dba:	8082                	ret

00002dbc <TIM_OC2Init>:
    2dbc:	311e                	lhu	a5,32(a0)
    2dbe:	7765                	lui	a4,0xffff9
    2dc0:	cff70713          	addi	a4,a4,-769 # ffff8cff <_eusrstack+0xdfff3cff>
    2dc4:	07c2                	slli	a5,a5,0x10
    2dc6:	83c1                	srli	a5,a5,0x10
    2dc8:	9bbd                	andi	a5,a5,-17
    2dca:	07c2                	slli	a5,a5,0x10
    2dcc:	83c1                	srli	a5,a5,0x10
    2dce:	b11e                	sh	a5,32(a0)
    2dd0:	311e                	lhu	a5,32(a0)
    2dd2:	2156                	lhu	a3,4(a0)
    2dd4:	0085d803          	lhu	a6,8(a1)
    2dd8:	07c2                	slli	a5,a5,0x10
    2dda:	01069613          	slli	a2,a3,0x10
    2dde:	2d16                	lhu	a3,24(a0)
    2de0:	83c1                	srli	a5,a5,0x10
    2de2:	fdf7f793          	andi	a5,a5,-33
    2de6:	8f75                	and	a4,a4,a3
    2de8:	2196                	lhu	a3,0(a1)
    2dea:	8241                	srli	a2,a2,0x10
    2dec:	06a2                	slli	a3,a3,0x8
    2dee:	8f55                	or	a4,a4,a3
    2df0:	21b6                	lhu	a3,2(a1)
    2df2:	0742                	slli	a4,a4,0x10
    2df4:	8341                	srli	a4,a4,0x10
    2df6:	0106e6b3          	or	a3,a3,a6
    2dfa:	0692                	slli	a3,a3,0x4
    2dfc:	8fd5                	or	a5,a5,a3
    2dfe:	400136b7          	lui	a3,0x40013
    2e02:	07c2                	slli	a5,a5,0x10
    2e04:	c0068693          	addi	a3,a3,-1024 # 40012c00 <_eusrstack+0x2000dc00>
    2e08:	83c1                	srli	a5,a5,0x10
    2e0a:	02d51e63          	bne	a0,a3,2e46 <TIM_OC2Init+0x8a>
    2e0e:	25b6                	lhu	a3,10(a1)
    2e10:	f7f7f793          	andi	a5,a5,-129
    2e14:	00c5d803          	lhu	a6,12(a1)
    2e18:	0692                	slli	a3,a3,0x4
    2e1a:	8fd5                	or	a5,a5,a3
    2e1c:	21d6                	lhu	a3,4(a1)
    2e1e:	07c2                	slli	a5,a5,0x10
    2e20:	83c1                	srli	a5,a5,0x10
    2e22:	0692                	slli	a3,a3,0x4
    2e24:	fbf7f793          	andi	a5,a5,-65
    2e28:	8fd5                	or	a5,a5,a3
    2e2a:	76fd                	lui	a3,0xfffff
    2e2c:	3ff68693          	addi	a3,a3,1023 # fffff3ff <_eusrstack+0xdfffa3ff>
    2e30:	8ef1                	and	a3,a3,a2
    2e32:	25f2                	lhu	a2,14(a1)
    2e34:	07c2                	slli	a5,a5,0x10
    2e36:	83c1                	srli	a5,a5,0x10
    2e38:	01066633          	or	a2,a2,a6
    2e3c:	060a                	slli	a2,a2,0x2
    2e3e:	8ed1                	or	a3,a3,a2
    2e40:	01069613          	slli	a2,a3,0x10
    2e44:	8241                	srli	a2,a2,0x10
    2e46:	a152                	sh	a2,4(a0)
    2e48:	ad1a                	sh	a4,24(a0)
    2e4a:	21fa                	lhu	a4,6(a1)
    2e4c:	bd1a                	sh	a4,56(a0)
    2e4e:	b11e                	sh	a5,32(a0)
    2e50:	8082                	ret

00002e52 <TIM_OC3Init>:
    2e52:	311e                	lhu	a5,32(a0)
    2e54:	0085d803          	lhu	a6,8(a1)
    2e58:	07c2                	slli	a5,a5,0x10
    2e5a:	83c1                	srli	a5,a5,0x10
    2e5c:	eff7f793          	andi	a5,a5,-257
    2e60:	07c2                	slli	a5,a5,0x10
    2e62:	83c1                	srli	a5,a5,0x10
    2e64:	b11e                	sh	a5,32(a0)
    2e66:	311e                	lhu	a5,32(a0)
    2e68:	2156                	lhu	a3,4(a0)
    2e6a:	2d5a                	lhu	a4,28(a0)
    2e6c:	07c2                	slli	a5,a5,0x10
    2e6e:	01069613          	slli	a2,a3,0x10
    2e72:	0742                	slli	a4,a4,0x10
    2e74:	2196                	lhu	a3,0(a1)
    2e76:	8341                	srli	a4,a4,0x10
    2e78:	f8c77713          	andi	a4,a4,-116
    2e7c:	8f55                	or	a4,a4,a3
    2e7e:	21b6                	lhu	a3,2(a1)
    2e80:	83c1                	srli	a5,a5,0x10
    2e82:	dff7f793          	andi	a5,a5,-513
    2e86:	0106e6b3          	or	a3,a3,a6
    2e8a:	06a2                	slli	a3,a3,0x8
    2e8c:	8fd5                	or	a5,a5,a3
    2e8e:	400136b7          	lui	a3,0x40013
    2e92:	07c2                	slli	a5,a5,0x10
    2e94:	c0068693          	addi	a3,a3,-1024 # 40012c00 <_eusrstack+0x2000dc00>
    2e98:	8241                	srli	a2,a2,0x10
    2e9a:	83c1                	srli	a5,a5,0x10
    2e9c:	02d51f63          	bne	a0,a3,2eda <TIM_OC3Init+0x88>
    2ea0:	76fd                	lui	a3,0xfffff
    2ea2:	7ff68693          	addi	a3,a3,2047 # fffff7ff <_eusrstack+0xdfffa7ff>
    2ea6:	8ff5                	and	a5,a5,a3
    2ea8:	25b6                	lhu	a3,10(a1)
    2eaa:	00c5d803          	lhu	a6,12(a1)
    2eae:	06a2                	slli	a3,a3,0x8
    2eb0:	8fd5                	or	a5,a5,a3
    2eb2:	21d6                	lhu	a3,4(a1)
    2eb4:	07c2                	slli	a5,a5,0x10
    2eb6:	83c1                	srli	a5,a5,0x10
    2eb8:	06a2                	slli	a3,a3,0x8
    2eba:	bff7f793          	andi	a5,a5,-1025
    2ebe:	8fd5                	or	a5,a5,a3
    2ec0:	76f5                	lui	a3,0xffffd
    2ec2:	16fd                	addi	a3,a3,-1
    2ec4:	8ef1                	and	a3,a3,a2
    2ec6:	25f2                	lhu	a2,14(a1)
    2ec8:	07c2                	slli	a5,a5,0x10
    2eca:	83c1                	srli	a5,a5,0x10
    2ecc:	01066633          	or	a2,a2,a6
    2ed0:	0612                	slli	a2,a2,0x4
    2ed2:	8ed1                	or	a3,a3,a2
    2ed4:	01069613          	slli	a2,a3,0x10
    2ed8:	8241                	srli	a2,a2,0x10
    2eda:	a152                	sh	a2,4(a0)
    2edc:	ad5a                	sh	a4,28(a0)
    2ede:	21fa                	lhu	a4,6(a1)
    2ee0:	bd5a                	sh	a4,60(a0)
    2ee2:	b11e                	sh	a5,32(a0)
    2ee4:	8082                	ret

00002ee6 <TIM_OC4Init>:
    2ee6:	311a                	lhu	a4,32(a0)
    2ee8:	77fd                	lui	a5,0xfffff
    2eea:	17fd                	addi	a5,a5,-1
    2eec:	8ff9                	and	a5,a5,a4
    2eee:	b11e                	sh	a5,32(a0)
    2ef0:	02055803          	lhu	a6,32(a0)
    2ef4:	2156                	lhu	a3,4(a0)
    2ef6:	2d5e                	lhu	a5,28(a0)
    2ef8:	7765                	lui	a4,0xffff9
    2efa:	2192                	lhu	a2,0(a1)
    2efc:	cff70713          	addi	a4,a4,-769 # ffff8cff <_eusrstack+0xdfff3cff>
    2f00:	8f7d                	and	a4,a4,a5
    2f02:	77f9                	lui	a5,0xffffe
    2f04:	0622                	slli	a2,a2,0x8
    2f06:	17fd                	addi	a5,a5,-1
    2f08:	8f51                	or	a4,a4,a2
    2f0a:	0107f7b3          	and	a5,a5,a6
    2f0e:	21b2                	lhu	a2,2(a1)
    2f10:	0085d803          	lhu	a6,8(a1)
    2f14:	06c2                	slli	a3,a3,0x10
    2f16:	0742                	slli	a4,a4,0x10
    2f18:	01066633          	or	a2,a2,a6
    2f1c:	0632                	slli	a2,a2,0xc
    2f1e:	8fd1                	or	a5,a5,a2
    2f20:	40013637          	lui	a2,0x40013
    2f24:	07c2                	slli	a5,a5,0x10
    2f26:	c0060613          	addi	a2,a2,-1024 # 40012c00 <_eusrstack+0x2000dc00>
    2f2a:	82c1                	srli	a3,a3,0x10
    2f2c:	8341                	srli	a4,a4,0x10
    2f2e:	83c1                	srli	a5,a5,0x10
    2f30:	00c51a63          	bne	a0,a2,2f44 <TIM_OC4Init+0x5e>
    2f34:	7671                	lui	a2,0xffffc
    2f36:	167d                	addi	a2,a2,-1
    2f38:	8ef1                	and	a3,a3,a2
    2f3a:	25d2                	lhu	a2,12(a1)
    2f3c:	061a                	slli	a2,a2,0x6
    2f3e:	8ed1                	or	a3,a3,a2
    2f40:	06c2                	slli	a3,a3,0x10
    2f42:	82c1                	srli	a3,a3,0x10
    2f44:	a156                	sh	a3,4(a0)
    2f46:	ad5a                	sh	a4,28(a0)
    2f48:	21fa                	lhu	a4,6(a1)
    2f4a:	04e51023          	sh	a4,64(a0)
    2f4e:	b11e                	sh	a5,32(a0)
    2f50:	8082                	ret

00002f52 <TIM_Cmd>:
    2f52:	211e                	lhu	a5,0(a0)
    2f54:	c589                	beqz	a1,2f5e <TIM_Cmd+0xc>
    2f56:	0017e793          	ori	a5,a5,1
    2f5a:	a11e                	sh	a5,0(a0)
    2f5c:	8082                	ret
    2f5e:	07c2                	slli	a5,a5,0x10
    2f60:	83c1                	srli	a5,a5,0x10
    2f62:	9bf9                	andi	a5,a5,-2
    2f64:	07c2                	slli	a5,a5,0x10
    2f66:	83c1                	srli	a5,a5,0x10
    2f68:	bfcd                	j	2f5a <TIM_Cmd+0x8>

00002f6a <TIM_CtrlPWMOutputs>:
    2f6a:	04455783          	lhu	a5,68(a0)
    2f6e:	c591                	beqz	a1,2f7a <TIM_CtrlPWMOutputs+0x10>
    2f70:	6721                	lui	a4,0x8
    2f72:	8fd9                	or	a5,a5,a4
    2f74:	04f51223          	sh	a5,68(a0)
    2f78:	8082                	ret
    2f7a:	07c6                	slli	a5,a5,0x11
    2f7c:	83c5                	srli	a5,a5,0x11
    2f7e:	bfdd                	j	2f74 <TIM_CtrlPWMOutputs+0xa>

00002f80 <TIM_ARRPreloadConfig>:
    2f80:	211e                	lhu	a5,0(a0)
    2f82:	c589                	beqz	a1,2f8c <TIM_ARRPreloadConfig+0xc>
    2f84:	0807e793          	ori	a5,a5,128
    2f88:	a11e                	sh	a5,0(a0)
    2f8a:	8082                	ret
    2f8c:	07c2                	slli	a5,a5,0x10
    2f8e:	83c1                	srli	a5,a5,0x10
    2f90:	f7f7f793          	andi	a5,a5,-129
    2f94:	07c2                	slli	a5,a5,0x10
    2f96:	83c1                	srli	a5,a5,0x10
    2f98:	bfc5                	j	2f88 <TIM_ARRPreloadConfig+0x8>

00002f9a <TIM_OC1PreloadConfig>:
    2f9a:	2d1e                	lhu	a5,24(a0)
    2f9c:	07c2                	slli	a5,a5,0x10
    2f9e:	83c1                	srli	a5,a5,0x10
    2fa0:	9bdd                	andi	a5,a5,-9
    2fa2:	8ddd                	or	a1,a1,a5
    2fa4:	ad0e                	sh	a1,24(a0)
    2fa6:	8082                	ret

00002fa8 <TIM_OC2PreloadConfig>:
    2fa8:	2d1a                	lhu	a4,24(a0)
    2faa:	77fd                	lui	a5,0xfffff
    2fac:	7ff78793          	addi	a5,a5,2047 # fffff7ff <_eusrstack+0xdfffa7ff>
    2fb0:	8ff9                	and	a5,a5,a4
    2fb2:	05a2                	slli	a1,a1,0x8
    2fb4:	8fcd                	or	a5,a5,a1
    2fb6:	07c2                	slli	a5,a5,0x10
    2fb8:	83c1                	srli	a5,a5,0x10
    2fba:	ad1e                	sh	a5,24(a0)
    2fbc:	8082                	ret

00002fbe <TIM_OC3PreloadConfig>:
    2fbe:	2d5e                	lhu	a5,28(a0)
    2fc0:	07c2                	slli	a5,a5,0x10
    2fc2:	83c1                	srli	a5,a5,0x10
    2fc4:	9bdd                	andi	a5,a5,-9
    2fc6:	8ddd                	or	a1,a1,a5
    2fc8:	ad4e                	sh	a1,28(a0)
    2fca:	8082                	ret

00002fcc <TIM_OC4PreloadConfig>:
    2fcc:	2d5a                	lhu	a4,28(a0)
    2fce:	77fd                	lui	a5,0xfffff
    2fd0:	7ff78793          	addi	a5,a5,2047 # fffff7ff <_eusrstack+0xdfffa7ff>
    2fd4:	8ff9                	and	a5,a5,a4
    2fd6:	05a2                	slli	a1,a1,0x8
    2fd8:	8fcd                	or	a5,a5,a1
    2fda:	07c2                	slli	a5,a5,0x10
    2fdc:	83c1                	srli	a5,a5,0x10
    2fde:	ad5e                	sh	a5,28(a0)
    2fe0:	8082                	ret

00002fe2 <TIM_SetCounter>:
    2fe2:	b14e                	sh	a1,36(a0)
    2fe4:	8082                	ret

00002fe6 <TIM_ClearFlag>:
    2fe6:	fff5c593          	not	a1,a1
    2fea:	05c2                	slli	a1,a1,0x10
    2fec:	81c1                	srli	a1,a1,0x10
    2fee:	a90e                	sh	a1,16(a0)
    2ff0:	8082                	ret

00002ff2 <USART_Init>:
    2ff2:	93efd2ef          	jal	t0,130 <__riscv_save_0>
    2ff6:	291a                	lhu	a4,16(a0)
    2ff8:	77f5                	lui	a5,0xffffd
    2ffa:	17fd                	addi	a5,a5,-1
    2ffc:	8ff9                	and	a5,a5,a4
    2ffe:	21fa                	lhu	a4,6(a1)
    3000:	1101                	addi	sp,sp,-32
    3002:	842a                	mv	s0,a0
    3004:	8fd9                	or	a5,a5,a4
    3006:	a91e                	sh	a5,16(a0)
    3008:	259a                	lhu	a4,8(a1)
    300a:	21de                	lhu	a5,4(a1)
    300c:	2556                	lhu	a3,12(a0)
    300e:	84ae                	mv	s1,a1
    3010:	8fd9                	or	a5,a5,a4
    3012:	25ba                	lhu	a4,10(a1)
    3014:	8fd9                	or	a5,a5,a4
    3016:	777d                	lui	a4,0xfffff
    3018:	9f370713          	addi	a4,a4,-1549 # ffffe9f3 <_eusrstack+0xdfff99f3>
    301c:	8f75                	and	a4,a4,a3
    301e:	8fd9                	or	a5,a5,a4
    3020:	a55e                	sh	a5,12(a0)
    3022:	295e                	lhu	a5,20(a0)
    3024:	25da                	lhu	a4,12(a1)
    3026:	07c2                	slli	a5,a5,0x10
    3028:	83c1                	srli	a5,a5,0x10
    302a:	cff7f793          	andi	a5,a5,-769
    302e:	8fd9                	or	a5,a5,a4
    3030:	a95e                	sh	a5,20(a0)
    3032:	0068                	addi	a0,sp,12
    3034:	b87ff0ef          	jal	ra,2bba <RCC_GetClocksFreq>
    3038:	400147b7          	lui	a5,0x40014
    303c:	80078793          	addi	a5,a5,-2048 # 40013800 <_eusrstack+0x2000e800>
    3040:	04f41663          	bne	s0,a5,308c <USART_Init+0x9a>
    3044:	47e2                	lw	a5,24(sp)
    3046:	4565                	li	a0,25
    3048:	02f535b3          	mulhu	a1,a0,a5
    304c:	4090                	lw	a2,0(s1)
    304e:	4681                	li	a3,0
    3050:	060a                	slli	a2,a2,0x2
    3052:	02f50533          	mul	a0,a0,a5
    3056:	2491                	jal	329a <__udivdi3>
    3058:	06400693          	li	a3,100
    305c:	02d55733          	divu	a4,a0,a3
    3060:	0712                	slli	a4,a4,0x4
    3062:	00475793          	srli	a5,a4,0x4
    3066:	02f687b3          	mul	a5,a3,a5
    306a:	8d1d                	sub	a0,a0,a5
    306c:	00451793          	slli	a5,a0,0x4
    3070:	03278513          	addi	a0,a5,50
    3074:	63f00793          	li	a5,1599
    3078:	00a7fc63          	bgeu	a5,a0,3090 <USART_Init+0x9e>
    307c:	01070513          	addi	a0,a4,16
    3080:	0542                	slli	a0,a0,0x10
    3082:	8141                	srli	a0,a0,0x10
    3084:	a40a                	sh	a0,8(s0)
    3086:	6105                	addi	sp,sp,32
    3088:	8ccfd06f          	j	154 <__riscv_restore_0>
    308c:	47d2                	lw	a5,20(sp)
    308e:	bf65                	j	3046 <USART_Init+0x54>
    3090:	02d55533          	divu	a0,a0,a3
    3094:	8d59                	or	a0,a0,a4
    3096:	b7ed                	j	3080 <USART_Init+0x8e>

00003098 <USART_Cmd>:
    3098:	c591                	beqz	a1,30a4 <USART_Cmd+0xc>
    309a:	255e                	lhu	a5,12(a0)
    309c:	6709                	lui	a4,0x2
    309e:	8fd9                	or	a5,a5,a4
    30a0:	a55e                	sh	a5,12(a0)
    30a2:	8082                	ret
    30a4:	255a                	lhu	a4,12(a0)
    30a6:	77f9                	lui	a5,0xffffe
    30a8:	17fd                	addi	a5,a5,-1
    30aa:	8ff9                	and	a5,a5,a4
    30ac:	bfd5                	j	30a0 <USART_Cmd+0x8>

000030ae <USART_SendData>:
    30ae:	1ff5f593          	andi	a1,a1,511
    30b2:	a14e                	sh	a1,4(a0)
    30b4:	8082                	ret

000030b6 <USART_GetFlagStatus>:
    30b6:	210a                	lhu	a0,0(a0)
    30b8:	8d6d                	and	a0,a0,a1
    30ba:	00a03533          	snez	a0,a0
    30be:	8082                	ret

000030c0 <Delay_Init>:
    30c0:	8081a783          	lw	a5,-2040(gp) # 20000088 <SystemCoreClock>
    30c4:	007a1737          	lui	a4,0x7a1
    30c8:	20070713          	addi	a4,a4,512 # 7a1200 <_data_lma+0x79cdd0>
    30cc:	02e7d7b3          	divu	a5,a5,a4
    30d0:	0ff7f793          	andi	a5,a5,255
    30d4:	84f18d23          	sb	a5,-1958(gp) # 200000da <p_us>
    30d8:	3e800713          	li	a4,1000
    30dc:	02e787b3          	mul	a5,a5,a4
    30e0:	84f19c23          	sh	a5,-1960(gp) # 200000d8 <p_ms>
    30e4:	8082                	ret

000030e6 <Delay_Us>:
    30e6:	e000f7b7          	lui	a5,0xe000f
    30ea:	43d8                	lw	a4,4(a5)
    30ec:	4681                	li	a3,0
    30ee:	9b79                	andi	a4,a4,-2
    30f0:	c3d8                	sw	a4,4(a5)
    30f2:	85a1c703          	lbu	a4,-1958(gp) # 200000da <p_us>
    30f6:	02a70633          	mul	a2,a4,a0
    30fa:	cb90                	sw	a2,16(a5)
    30fc:	cbd4                	sw	a3,20(a5)
    30fe:	4398                	lw	a4,0(a5)
    3100:	01076713          	ori	a4,a4,16
    3104:	c398                	sw	a4,0(a5)
    3106:	4398                	lw	a4,0(a5)
    3108:	02176713          	ori	a4,a4,33
    310c:	c398                	sw	a4,0(a5)
    310e:	43d8                	lw	a4,4(a5)
    3110:	8b05                	andi	a4,a4,1
    3112:	df75                	beqz	a4,310e <Delay_Us+0x28>
    3114:	4398                	lw	a4,0(a5)
    3116:	9b79                	andi	a4,a4,-2
    3118:	c398                	sw	a4,0(a5)
    311a:	8082                	ret

0000311c <Delay_Ms>:
    311c:	e000f7b7          	lui	a5,0xe000f
    3120:	43d8                	lw	a4,4(a5)
    3122:	4681                	li	a3,0
    3124:	9b79                	andi	a4,a4,-2
    3126:	c3d8                	sw	a4,4(a5)
    3128:	8581d703          	lhu	a4,-1960(gp) # 200000d8 <p_ms>
    312c:	02a70633          	mul	a2,a4,a0
    3130:	cb90                	sw	a2,16(a5)
    3132:	cbd4                	sw	a3,20(a5)
    3134:	4398                	lw	a4,0(a5)
    3136:	01076713          	ori	a4,a4,16
    313a:	c398                	sw	a4,0(a5)
    313c:	4398                	lw	a4,0(a5)
    313e:	02176713          	ori	a4,a4,33
    3142:	c398                	sw	a4,0(a5)
    3144:	43d8                	lw	a4,4(a5)
    3146:	8b05                	andi	a4,a4,1
    3148:	df75                	beqz	a4,3144 <Delay_Ms+0x28>
    314a:	4398                	lw	a4,0(a5)
    314c:	9b79                	andi	a4,a4,-2
    314e:	c398                	sw	a4,0(a5)
    3150:	8082                	ret

00003152 <Delay_Ticks>:
    3152:	e000f7b7          	lui	a5,0xe000f
    3156:	43d8                	lw	a4,4(a5)
    3158:	4681                	li	a3,0
    315a:	9b79                	andi	a4,a4,-2
    315c:	c3d8                	sw	a4,4(a5)
    315e:	cb88                	sw	a0,16(a5)
    3160:	cbd4                	sw	a3,20(a5)
    3162:	4398                	lw	a4,0(a5)
    3164:	01076713          	ori	a4,a4,16
    3168:	c398                	sw	a4,0(a5)
    316a:	4398                	lw	a4,0(a5)
    316c:	02176713          	ori	a4,a4,33
    3170:	c398                	sw	a4,0(a5)
    3172:	43d8                	lw	a4,4(a5)
    3174:	8b05                	andi	a4,a4,1
    3176:	df75                	beqz	a4,3172 <Delay_Ticks+0x20>
    3178:	4398                	lw	a4,0(a5)
    317a:	9b79                	andi	a4,a4,-2
    317c:	c398                	sw	a4,0(a5)
    317e:	8082                	ret

00003180 <start_timer_us_u32>:
    3180:	e000f7b7          	lui	a5,0xe000f
    3184:	43d8                	lw	a4,4(a5)
    3186:	4681                	li	a3,0
    3188:	9b79                	andi	a4,a4,-2
    318a:	c3d8                	sw	a4,4(a5)
    318c:	85a1c703          	lbu	a4,-1958(gp) # 200000da <p_us>
    3190:	02a70633          	mul	a2,a4,a0
    3194:	cb90                	sw	a2,16(a5)
    3196:	cbd4                	sw	a3,20(a5)
    3198:	4398                	lw	a4,0(a5)
    319a:	01076713          	ori	a4,a4,16
    319e:	c398                	sw	a4,0(a5)
    31a0:	4398                	lw	a4,0(a5)
    31a2:	02176713          	ori	a4,a4,33
    31a6:	c398                	sw	a4,0(a5)
    31a8:	8082                	ret

000031aa <start_timer_us_u8>:
    31aa:	f87fc2ef          	jal	t0,130 <__riscv_save_0>
    31ae:	47d1                	li	a5,20
    31b0:	02f50533          	mul	a0,a0,a5
    31b4:	fcdff0ef          	jal	ra,3180 <start_timer_us_u32>
    31b8:	f9dfc06f          	j	154 <__riscv_restore_0>

000031bc <has_timer_timeout>:
    31bc:	e000f7b7          	lui	a5,0xe000f
    31c0:	43c8                	lw	a0,4(a5)
    31c2:	8905                	andi	a0,a0,1
    31c4:	8082                	ret

000031c6 <reset_timer>:
    31c6:	e000f737          	lui	a4,0xe000f
    31ca:	431c                	lw	a5,0(a4)
    31cc:	9bf9                	andi	a5,a5,-2
    31ce:	c31c                	sw	a5,0(a4)
    31d0:	8082                	ret

000031d2 <USART_Printf_Init>:
    31d2:	f5ffc2ef          	jal	t0,130 <__riscv_save_0>
    31d6:	1101                	addi	sp,sp,-32
    31d8:	842a                	mv	s0,a0
    31da:	4585                	li	a1,1
    31dc:	00080537          	lui	a0,0x80
    31e0:	ad5ff0ef          	jal	ra,2cb4 <RCC_APB1PeriphClockCmd>
    31e4:	4585                	li	a1,1
    31e6:	4521                	li	a0,8
    31e8:	aafff0ef          	jal	ra,2c96 <RCC_APB2PeriphClockCmd>
    31ec:	4785                	li	a5,1
    31ee:	827c                	sh	a5,4(sp)
    31f0:	40011537          	lui	a0,0x40011
    31f4:	478d                	li	a5,3
    31f6:	c43e                	sw	a5,8(sp)
    31f8:	004c                	addi	a1,sp,4
    31fa:	47e1                	li	a5,24
    31fc:	c0050513          	addi	a0,a0,-1024 # 40010c00 <_eusrstack+0x2000bc00>
    3200:	c63e                	sw	a5,12(sp)
    3202:	807ff0ef          	jal	ra,2a08 <GPIO_Init>
    3206:	c822                	sw	s0,16(sp)
    3208:	40005437          	lui	s0,0x40005
    320c:	000807b7          	lui	a5,0x80
    3210:	080c                	addi	a1,sp,16
    3212:	c0040513          	addi	a0,s0,-1024 # 40004c00 <_eusrstack+0x1ffffc00>
    3216:	cc3e                	sw	a5,24(sp)
    3218:	ca02                	sw	zero,20(sp)
    321a:	00011e23          	sh	zero,28(sp)
    321e:	dd5ff0ef          	jal	ra,2ff2 <USART_Init>
    3222:	4585                	li	a1,1
    3224:	c0040513          	addi	a0,s0,-1024
    3228:	e71ff0ef          	jal	ra,3098 <USART_Cmd>
    322c:	6105                	addi	sp,sp,32
    322e:	f27fc06f          	j	154 <__riscv_restore_0>

00003232 <_write>:
    3232:	ee5fc2ef          	jal	t0,116 <__riscv_save_4>
    3236:	400054b7          	lui	s1,0x40005
    323a:	89ae                	mv	s3,a1
    323c:	8932                	mv	s2,a2
    323e:	4401                	li	s0,0
    3240:	c0048493          	addi	s1,s1,-1024 # 40004c00 <_eusrstack+0x1ffffc00>
    3244:	01244563          	blt	s0,s2,324e <_write+0x1c>
    3248:	854a                	mv	a0,s2
    324a:	f01fc06f          	j	14a <__riscv_restore_4>
    324e:	04000593          	li	a1,64
    3252:	8526                	mv	a0,s1
    3254:	e63ff0ef          	jal	ra,30b6 <USART_GetFlagStatus>
    3258:	d97d                	beqz	a0,324e <_write+0x1c>
    325a:	008987b3          	add	a5,s3,s0
    325e:	00078583          	lb	a1,0(a5) # 80000 <_data_lma+0x7bbd0>
    3262:	8526                	mv	a0,s1
    3264:	0405                	addi	s0,s0,1
    3266:	05c2                	slli	a1,a1,0x10
    3268:	81c1                	srli	a1,a1,0x10
    326a:	e45ff0ef          	jal	ra,30ae <USART_SendData>
    326e:	bfd9                	j	3244 <_write+0x12>

00003270 <_sbrk>:
    3270:	81018713          	addi	a4,gp,-2032 # 20000090 <curbrk.4702>
    3274:	431c                	lw	a5,0(a4)
    3276:	200036b7          	lui	a3,0x20003
    327a:	95868693          	addi	a3,a3,-1704 # 20002958 <_ebss>
    327e:	953e                	add	a0,a0,a5
    3280:	00d56b63          	bltu	a0,a3,3296 <_sbrk+0x26>
    3284:	200056b7          	lui	a3,0x20005
    3288:	80068693          	addi	a3,a3,-2048 # 20004800 <_heap_end>
    328c:	00a6e563          	bltu	a3,a0,3296 <_sbrk+0x26>
    3290:	c308                	sw	a0,0(a4)
    3292:	853e                	mv	a0,a5
    3294:	8082                	ret
    3296:	57fd                	li	a5,-1
    3298:	bfed                	j	3292 <_sbrk+0x22>

0000329a <__udivdi3>:
    329a:	87b6                	mv	a5,a3
    329c:	88b2                	mv	a7,a2
    329e:	832a                	mv	t1,a0
    32a0:	882e                	mv	a6,a1
    32a2:	14069b63          	bnez	a3,33f8 <__udivdi3+0x15e>
    32a6:	0ac5f863          	bgeu	a1,a2,3356 <__udivdi3+0xbc>
    32aa:	6741                	lui	a4,0x10
    32ac:	1ae66b63          	bltu	a2,a4,3462 <__udivdi3+0x1c8>
    32b0:	010007b7          	lui	a5,0x1000
    32b4:	34f66063          	bltu	a2,a5,35f4 <__udivdi3+0x35a>
    32b8:	01865693          	srli	a3,a2,0x18
    32bc:	47e1                	li	a5,24
    32be:	00001717          	auipc	a4,0x1
    32c2:	01270713          	addi	a4,a4,18 # 42d0 <__clz_tab>
    32c6:	9736                	add	a4,a4,a3
    32c8:	2318                	lbu	a4,0(a4)
    32ca:	97ba                	add	a5,a5,a4
    32cc:	02000713          	li	a4,32
    32d0:	8f1d                	sub	a4,a4,a5
    32d2:	cb19                	beqz	a4,32e8 <__udivdi3+0x4e>
    32d4:	00e59833          	sll	a6,a1,a4
    32d8:	00f557b3          	srl	a5,a0,a5
    32dc:	00e618b3          	sll	a7,a2,a4
    32e0:	0107e833          	or	a6,a5,a6
    32e4:	00e51333          	sll	t1,a0,a4
    32e8:	0108d613          	srli	a2,a7,0x10
    32ec:	02c85533          	divu	a0,a6,a2
    32f0:	01089693          	slli	a3,a7,0x10
    32f4:	82c1                	srli	a3,a3,0x10
    32f6:	01035793          	srli	a5,t1,0x10
    32fa:	02c87733          	remu	a4,a6,a2
    32fe:	02a685b3          	mul	a1,a3,a0
    3302:	0742                	slli	a4,a4,0x10
    3304:	00f76833          	or	a6,a4,a5
    3308:	00b87a63          	bgeu	a6,a1,331c <__udivdi3+0x82>
    330c:	9846                	add	a6,a6,a7
    330e:	fff50793          	addi	a5,a0,-1
    3312:	01186463          	bltu	a6,a7,331a <__udivdi3+0x80>
    3316:	30b86563          	bltu	a6,a1,3620 <__udivdi3+0x386>
    331a:	853e                	mv	a0,a5
    331c:	40b80833          	sub	a6,a6,a1
    3320:	02c85733          	divu	a4,a6,a2
    3324:	0342                	slli	t1,t1,0x10
    3326:	01035313          	srli	t1,t1,0x10
    332a:	02c87833          	remu	a6,a6,a2
    332e:	02e686b3          	mul	a3,a3,a4
    3332:	0842                	slli	a6,a6,0x10
    3334:	00686833          	or	a6,a6,t1
    3338:	00d87b63          	bgeu	a6,a3,334e <__udivdi3+0xb4>
    333c:	9846                	add	a6,a6,a7
    333e:	fff70793          	addi	a5,a4,-1
    3342:	01186563          	bltu	a6,a7,334c <__udivdi3+0xb2>
    3346:	1779                	addi	a4,a4,-2
    3348:	00d86363          	bltu	a6,a3,334e <__udivdi3+0xb4>
    334c:	873e                	mv	a4,a5
    334e:	0542                	slli	a0,a0,0x10
    3350:	8d59                	or	a0,a0,a4
    3352:	4581                	li	a1,0
    3354:	8082                	ret
    3356:	e601                	bnez	a2,335e <__udivdi3+0xc4>
    3358:	4705                	li	a4,1
    335a:	02c758b3          	divu	a7,a4,a2
    335e:	6741                	lui	a4,0x10
    3360:	0ee8e863          	bltu	a7,a4,3450 <__udivdi3+0x1b6>
    3364:	010007b7          	lui	a5,0x1000
    3368:	28f8ea63          	bltu	a7,a5,35fc <__udivdi3+0x362>
    336c:	0188d693          	srli	a3,a7,0x18
    3370:	47e1                	li	a5,24
    3372:	00001717          	auipc	a4,0x1
    3376:	f5e70713          	addi	a4,a4,-162 # 42d0 <__clz_tab>
    337a:	9736                	add	a4,a4,a3
    337c:	2314                	lbu	a3,0(a4)
    337e:	96be                	add	a3,a3,a5
    3380:	02000793          	li	a5,32
    3384:	8f95                	sub	a5,a5,a3
    3386:	e7fd                	bnez	a5,3474 <__udivdi3+0x1da>
    3388:	01089e93          	slli	t4,a7,0x10
    338c:	41158733          	sub	a4,a1,a7
    3390:	0108df13          	srli	t5,a7,0x10
    3394:	010ede93          	srli	t4,t4,0x10
    3398:	4585                	li	a1,1
    339a:	01035793          	srli	a5,t1,0x10
    339e:	03e75533          	divu	a0,a4,t5
    33a2:	03e77733          	remu	a4,a4,t5
    33a6:	03d506b3          	mul	a3,a0,t4
    33aa:	0742                	slli	a4,a4,0x10
    33ac:	8fd9                	or	a5,a5,a4
    33ae:	00d7fa63          	bgeu	a5,a3,33c2 <__udivdi3+0x128>
    33b2:	97c6                	add	a5,a5,a7
    33b4:	fff50713          	addi	a4,a0,-1
    33b8:	0117e463          	bltu	a5,a7,33c0 <__udivdi3+0x126>
    33bc:	26d7e563          	bltu	a5,a3,3626 <__udivdi3+0x38c>
    33c0:	853a                	mv	a0,a4
    33c2:	8f95                	sub	a5,a5,a3
    33c4:	03e7d733          	divu	a4,a5,t5
    33c8:	0342                	slli	t1,t1,0x10
    33ca:	01035313          	srli	t1,t1,0x10
    33ce:	03e7f7b3          	remu	a5,a5,t5
    33d2:	03d70eb3          	mul	t4,a4,t4
    33d6:	07c2                	slli	a5,a5,0x10
    33d8:	0067e7b3          	or	a5,a5,t1
    33dc:	01d7fb63          	bgeu	a5,t4,33f2 <__udivdi3+0x158>
    33e0:	97c6                	add	a5,a5,a7
    33e2:	fff70693          	addi	a3,a4,-1
    33e6:	0117e563          	bltu	a5,a7,33f0 <__udivdi3+0x156>
    33ea:	1779                	addi	a4,a4,-2
    33ec:	01d7e363          	bltu	a5,t4,33f2 <__udivdi3+0x158>
    33f0:	8736                	mv	a4,a3
    33f2:	0542                	slli	a0,a0,0x10
    33f4:	8d59                	or	a0,a0,a4
    33f6:	8082                	ret
    33f8:	04d5e163          	bltu	a1,a3,343a <__udivdi3+0x1a0>
    33fc:	67c1                	lui	a5,0x10
    33fe:	04f6e163          	bltu	a3,a5,3440 <__udivdi3+0x1a6>
    3402:	010007b7          	lui	a5,0x1000
    3406:	1ef6e363          	bltu	a3,a5,35ec <__udivdi3+0x352>
    340a:	0186d713          	srli	a4,a3,0x18
    340e:	4861                	li	a6,24
    3410:	00001797          	auipc	a5,0x1
    3414:	ec078793          	addi	a5,a5,-320 # 42d0 <__clz_tab>
    3418:	97ba                	add	a5,a5,a4
    341a:	2398                	lbu	a4,0(a5)
    341c:	02000e13          	li	t3,32
    3420:	9742                	add	a4,a4,a6
    3422:	40ee0e33          	sub	t3,t3,a4
    3426:	0c0e1a63          	bnez	t3,34fa <__udivdi3+0x260>
    342a:	1cb6ed63          	bltu	a3,a1,3604 <__udivdi3+0x36a>
    342e:	00c53533          	sltu	a0,a0,a2
    3432:	00154513          	xori	a0,a0,1
    3436:	4581                	li	a1,0
    3438:	8082                	ret
    343a:	4581                	li	a1,0
    343c:	4501                	li	a0,0
    343e:	8082                	ret
    3440:	0ff00793          	li	a5,255
    3444:	1cd7f363          	bgeu	a5,a3,360a <__udivdi3+0x370>
    3448:	0086d713          	srli	a4,a3,0x8
    344c:	4821                	li	a6,8
    344e:	b7c9                	j	3410 <__udivdi3+0x176>
    3450:	0ff00713          	li	a4,255
    3454:	86c6                	mv	a3,a7
    3456:	f1177ee3          	bgeu	a4,a7,3372 <__udivdi3+0xd8>
    345a:	0088d693          	srli	a3,a7,0x8
    345e:	47a1                	li	a5,8
    3460:	bf09                	j	3372 <__udivdi3+0xd8>
    3462:	0ff00713          	li	a4,255
    3466:	86b2                	mv	a3,a2
    3468:	e4c77be3          	bgeu	a4,a2,32be <__udivdi3+0x24>
    346c:	00865693          	srli	a3,a2,0x8
    3470:	47a1                	li	a5,8
    3472:	b5b1                	j	32be <__udivdi3+0x24>
    3474:	00f898b3          	sll	a7,a7,a5
    3478:	00d5d633          	srl	a2,a1,a3
    347c:	0108df13          	srli	t5,a7,0x10
    3480:	03e65e33          	divu	t3,a2,t5
    3484:	00f59733          	sll	a4,a1,a5
    3488:	00d556b3          	srl	a3,a0,a3
    348c:	8f55                	or	a4,a4,a3
    348e:	01089e93          	slli	t4,a7,0x10
    3492:	010ede93          	srli	t4,t4,0x10
    3496:	00f51333          	sll	t1,a0,a5
    349a:	01075593          	srli	a1,a4,0x10
    349e:	03e676b3          	remu	a3,a2,t5
    34a2:	03ce87b3          	mul	a5,t4,t3
    34a6:	06c2                	slli	a3,a3,0x10
    34a8:	8ecd                	or	a3,a3,a1
    34aa:	00f6fb63          	bgeu	a3,a5,34c0 <__udivdi3+0x226>
    34ae:	96c6                	add	a3,a3,a7
    34b0:	fffe0613          	addi	a2,t3,-1
    34b4:	1716e463          	bltu	a3,a7,361c <__udivdi3+0x382>
    34b8:	16f6f263          	bgeu	a3,a5,361c <__udivdi3+0x382>
    34bc:	1e79                	addi	t3,t3,-2
    34be:	96c6                	add	a3,a3,a7
    34c0:	8e9d                	sub	a3,a3,a5
    34c2:	03e6d633          	divu	a2,a3,t5
    34c6:	01071793          	slli	a5,a4,0x10
    34ca:	83c1                	srli	a5,a5,0x10
    34cc:	03e6f6b3          	remu	a3,a3,t5
    34d0:	02ce8533          	mul	a0,t4,a2
    34d4:	01069713          	slli	a4,a3,0x10
    34d8:	8f5d                	or	a4,a4,a5
    34da:	00a77b63          	bgeu	a4,a0,34f0 <__udivdi3+0x256>
    34de:	9746                	add	a4,a4,a7
    34e0:	fff60793          	addi	a5,a2,-1 # ffffbfff <_eusrstack+0xdfff6fff>
    34e4:	13176863          	bltu	a4,a7,3614 <__udivdi3+0x37a>
    34e8:	12a77663          	bgeu	a4,a0,3614 <__udivdi3+0x37a>
    34ec:	1679                	addi	a2,a2,-2
    34ee:	9746                	add	a4,a4,a7
    34f0:	010e1593          	slli	a1,t3,0x10
    34f4:	8f09                	sub	a4,a4,a0
    34f6:	8dd1                	or	a1,a1,a2
    34f8:	b54d                	j	339a <__udivdi3+0x100>
    34fa:	00e657b3          	srl	a5,a2,a4
    34fe:	01c696b3          	sll	a3,a3,t3
    3502:	8edd                	or	a3,a3,a5
    3504:	00e5d333          	srl	t1,a1,a4
    3508:	0106df13          	srli	t5,a3,0x10
    350c:	03e357b3          	divu	a5,t1,t5
    3510:	01069e93          	slli	t4,a3,0x10
    3514:	010ede93          	srli	t4,t4,0x10
    3518:	01c59833          	sll	a6,a1,t3
    351c:	00e55733          	srl	a4,a0,a4
    3520:	01076833          	or	a6,a4,a6
    3524:	01085893          	srli	a7,a6,0x10
    3528:	01c61633          	sll	a2,a2,t3
    352c:	03e37333          	remu	t1,t1,t5
    3530:	02fe85b3          	mul	a1,t4,a5
    3534:	0342                	slli	t1,t1,0x10
    3536:	011368b3          	or	a7,t1,a7
    353a:	00b8fb63          	bgeu	a7,a1,3550 <__udivdi3+0x2b6>
    353e:	98b6                	add	a7,a7,a3
    3540:	fff78713          	addi	a4,a5,-1
    3544:	0cd8ea63          	bltu	a7,a3,3618 <__udivdi3+0x37e>
    3548:	0cb8f863          	bgeu	a7,a1,3618 <__udivdi3+0x37e>
    354c:	17f9                	addi	a5,a5,-2
    354e:	98b6                	add	a7,a7,a3
    3550:	40b888b3          	sub	a7,a7,a1
    3554:	03e8d733          	divu	a4,a7,t5
    3558:	0842                	slli	a6,a6,0x10
    355a:	01085813          	srli	a6,a6,0x10
    355e:	03e8f8b3          	remu	a7,a7,t5
    3562:	02ee8333          	mul	t1,t4,a4
    3566:	08c2                	slli	a7,a7,0x10
    3568:	0108e5b3          	or	a1,a7,a6
    356c:	0065fb63          	bgeu	a1,t1,3582 <__udivdi3+0x2e8>
    3570:	95b6                	add	a1,a1,a3
    3572:	fff70813          	addi	a6,a4,-1
    3576:	08d5ed63          	bltu	a1,a3,3610 <__udivdi3+0x376>
    357a:	0865fb63          	bgeu	a1,t1,3610 <__udivdi3+0x376>
    357e:	1779                	addi	a4,a4,-2
    3580:	95b6                	add	a1,a1,a3
    3582:	07c2                	slli	a5,a5,0x10
    3584:	6f41                	lui	t5,0x10
    3586:	8fd9                	or	a5,a5,a4
    3588:	ffff0713          	addi	a4,t5,-1 # ffff <_data_lma+0xbbcf>
    358c:	00e7f6b3          	and	a3,a5,a4
    3590:	0107d893          	srli	a7,a5,0x10
    3594:	8f71                	and	a4,a4,a2
    3596:	8241                	srli	a2,a2,0x10
    3598:	02e68eb3          	mul	t4,a3,a4
    359c:	406585b3          	sub	a1,a1,t1
    35a0:	02c686b3          	mul	a3,a3,a2
    35a4:	010ed813          	srli	a6,t4,0x10
    35a8:	02e88733          	mul	a4,a7,a4
    35ac:	96ba                	add	a3,a3,a4
    35ae:	96c2                	add	a3,a3,a6
    35b0:	02c88633          	mul	a2,a7,a2
    35b4:	00e6f363          	bgeu	a3,a4,35ba <__udivdi3+0x320>
    35b8:	967a                	add	a2,a2,t5
    35ba:	0106d893          	srli	a7,a3,0x10
    35be:	9646                	add	a2,a2,a7
    35c0:	02c5e263          	bltu	a1,a2,35e4 <__udivdi3+0x34a>
    35c4:	00c58563          	beq	a1,a2,35ce <__udivdi3+0x334>
    35c8:	853e                	mv	a0,a5
    35ca:	4581                	li	a1,0
    35cc:	8082                	ret
    35ce:	6741                	lui	a4,0x10
    35d0:	177d                	addi	a4,a4,-1
    35d2:	8ef9                	and	a3,a3,a4
    35d4:	06c2                	slli	a3,a3,0x10
    35d6:	00eefeb3          	and	t4,t4,a4
    35da:	01c51533          	sll	a0,a0,t3
    35de:	96f6                	add	a3,a3,t4
    35e0:	fed574e3          	bgeu	a0,a3,35c8 <__udivdi3+0x32e>
    35e4:	fff78513          	addi	a0,a5,-1
    35e8:	4581                	li	a1,0
    35ea:	8082                	ret
    35ec:	0106d713          	srli	a4,a3,0x10
    35f0:	4841                	li	a6,16
    35f2:	bd39                	j	3410 <__udivdi3+0x176>
    35f4:	01065693          	srli	a3,a2,0x10
    35f8:	47c1                	li	a5,16
    35fa:	b1d1                	j	32be <__udivdi3+0x24>
    35fc:	0108d693          	srli	a3,a7,0x10
    3600:	47c1                	li	a5,16
    3602:	bb85                	j	3372 <__udivdi3+0xd8>
    3604:	4581                	li	a1,0
    3606:	4505                	li	a0,1
    3608:	8082                	ret
    360a:	8736                	mv	a4,a3
    360c:	4801                	li	a6,0
    360e:	b509                	j	3410 <__udivdi3+0x176>
    3610:	8742                	mv	a4,a6
    3612:	bf85                	j	3582 <__udivdi3+0x2e8>
    3614:	863e                	mv	a2,a5
    3616:	bde9                	j	34f0 <__udivdi3+0x256>
    3618:	87ba                	mv	a5,a4
    361a:	bf1d                	j	3550 <__udivdi3+0x2b6>
    361c:	8e32                	mv	t3,a2
    361e:	b54d                	j	34c0 <__udivdi3+0x226>
    3620:	1579                	addi	a0,a0,-2
    3622:	9846                	add	a6,a6,a7
    3624:	b9e5                	j	331c <__udivdi3+0x82>
    3626:	1579                	addi	a0,a0,-2
    3628:	97c6                	add	a5,a5,a7
    362a:	bb61                	j	33c2 <__udivdi3+0x128>

0000362c <memcpy>:
    362c:	00a5c7b3          	xor	a5,a1,a0
    3630:	8b8d                	andi	a5,a5,3
    3632:	00c50733          	add	a4,a0,a2
    3636:	e781                	bnez	a5,363e <memcpy+0x12>
    3638:	478d                	li	a5,3
    363a:	00c7ed63          	bltu	a5,a2,3654 <memcpy+0x28>
    363e:	87aa                	mv	a5,a0
    3640:	08e57e63          	bgeu	a0,a4,36dc <memcpy+0xb0>
    3644:	2194                	lbu	a3,0(a1)
    3646:	0785                	addi	a5,a5,1
    3648:	0585                	addi	a1,a1,1
    364a:	fed78fa3          	sb	a3,-1(a5)
    364e:	fee7ebe3          	bltu	a5,a4,3644 <memcpy+0x18>
    3652:	8082                	ret
    3654:	00357693          	andi	a3,a0,3
    3658:	87aa                	mv	a5,a0
    365a:	ca89                	beqz	a3,366c <memcpy+0x40>
    365c:	2194                	lbu	a3,0(a1)
    365e:	0785                	addi	a5,a5,1
    3660:	0585                	addi	a1,a1,1
    3662:	fed78fa3          	sb	a3,-1(a5)
    3666:	0037f693          	andi	a3,a5,3
    366a:	bfc5                	j	365a <memcpy+0x2e>
    366c:	ffc77693          	andi	a3,a4,-4
    3670:	fe068613          	addi	a2,a3,-32
    3674:	06c7f063          	bgeu	a5,a2,36d4 <memcpy+0xa8>
    3678:	0005a383          	lw	t2,0(a1)
    367c:	0045a283          	lw	t0,4(a1)
    3680:	0085af83          	lw	t6,8(a1)
    3684:	00c5af03          	lw	t5,12(a1)
    3688:	0105ae83          	lw	t4,16(a1)
    368c:	0145ae03          	lw	t3,20(a1)
    3690:	0185a303          	lw	t1,24(a1)
    3694:	01c5a883          	lw	a7,28(a1)
    3698:	02458593          	addi	a1,a1,36
    369c:	0077a023          	sw	t2,0(a5)
    36a0:	ffc5a803          	lw	a6,-4(a1)
    36a4:	0057a223          	sw	t0,4(a5)
    36a8:	01f7a423          	sw	t6,8(a5)
    36ac:	01e7a623          	sw	t5,12(a5)
    36b0:	01d7a823          	sw	t4,16(a5)
    36b4:	01c7aa23          	sw	t3,20(a5)
    36b8:	0067ac23          	sw	t1,24(a5)
    36bc:	0117ae23          	sw	a7,28(a5)
    36c0:	02478793          	addi	a5,a5,36
    36c4:	ff07ae23          	sw	a6,-4(a5)
    36c8:	b775                	j	3674 <memcpy+0x48>
    36ca:	4190                	lw	a2,0(a1)
    36cc:	0791                	addi	a5,a5,4
    36ce:	0591                	addi	a1,a1,4
    36d0:	fec7ae23          	sw	a2,-4(a5)
    36d4:	fed7ebe3          	bltu	a5,a3,36ca <memcpy+0x9e>
    36d8:	f6e7e6e3          	bltu	a5,a4,3644 <memcpy+0x18>
    36dc:	8082                	ret

000036de <_puts_r>:
    36de:	1101                	addi	sp,sp,-32
    36e0:	ca26                	sw	s1,20(sp)
    36e2:	c84a                	sw	s2,16(sp)
    36e4:	ce06                	sw	ra,28(sp)
    36e6:	cc22                	sw	s0,24(sp)
    36e8:	c64e                	sw	s3,12(sp)
    36ea:	c452                	sw	s4,8(sp)
    36ec:	84aa                	mv	s1,a0
    36ee:	892e                	mv	s2,a1
    36f0:	c501                	beqz	a0,36f8 <_puts_r+0x1a>
    36f2:	4d1c                	lw	a5,24(a0)
    36f4:	e391                	bnez	a5,36f8 <_puts_r+0x1a>
    36f6:	21f1                	jal	3bc2 <__sinit>
    36f8:	4c9c                	lw	a5,24(s1)
    36fa:	4480                	lw	s0,8(s1)
    36fc:	e399                	bnez	a5,3702 <_puts_r+0x24>
    36fe:	8526                	mv	a0,s1
    3700:	21c9                	jal	3bc2 <__sinit>
    3702:	00001797          	auipc	a5,0x1
    3706:	cee78793          	addi	a5,a5,-786 # 43f0 <__sf_fake_stdin>
    370a:	02f41b63          	bne	s0,a5,3740 <_puts_r+0x62>
    370e:	40c0                	lw	s0,4(s1)
    3710:	245e                	lhu	a5,12(s0)
    3712:	8ba1                	andi	a5,a5,8
    3714:	c7b1                	beqz	a5,3760 <_puts_r+0x82>
    3716:	481c                	lw	a5,16(s0)
    3718:	c7a1                	beqz	a5,3760 <_puts_r+0x82>
    371a:	59fd                	li	s3,-1
    371c:	4a29                	li	s4,10
    371e:	441c                	lw	a5,8(s0)
    3720:	00094583          	lbu	a1,0(s2)
    3724:	17fd                	addi	a5,a5,-1
    3726:	e9b1                	bnez	a1,377a <_puts_r+0x9c>
    3728:	c41c                	sw	a5,8(s0)
    372a:	0607dd63          	bgez	a5,37a4 <_puts_r+0xc6>
    372e:	8622                	mv	a2,s0
    3730:	45a9                	li	a1,10
    3732:	8526                	mv	a0,s1
    3734:	2069                	jal	37be <__swbuf_r>
    3736:	57fd                	li	a5,-1
    3738:	02f50863          	beq	a0,a5,3768 <_puts_r+0x8a>
    373c:	4529                	li	a0,10
    373e:	a035                	j	376a <_puts_r+0x8c>
    3740:	00001797          	auipc	a5,0x1
    3744:	cd078793          	addi	a5,a5,-816 # 4410 <__sf_fake_stdout>
    3748:	00f41463          	bne	s0,a5,3750 <_puts_r+0x72>
    374c:	4480                	lw	s0,8(s1)
    374e:	b7c9                	j	3710 <_puts_r+0x32>
    3750:	00001797          	auipc	a5,0x1
    3754:	c8078793          	addi	a5,a5,-896 # 43d0 <__sf_fake_stderr>
    3758:	faf41ce3          	bne	s0,a5,3710 <_puts_r+0x32>
    375c:	44c0                	lw	s0,12(s1)
    375e:	bf4d                	j	3710 <_puts_r+0x32>
    3760:	85a2                	mv	a1,s0
    3762:	8526                	mv	a0,s1
    3764:	2a19                	jal	387a <__swsetup_r>
    3766:	d955                	beqz	a0,371a <_puts_r+0x3c>
    3768:	557d                	li	a0,-1
    376a:	40f2                	lw	ra,28(sp)
    376c:	4462                	lw	s0,24(sp)
    376e:	44d2                	lw	s1,20(sp)
    3770:	4942                	lw	s2,16(sp)
    3772:	49b2                	lw	s3,12(sp)
    3774:	4a22                	lw	s4,8(sp)
    3776:	6105                	addi	sp,sp,32
    3778:	8082                	ret
    377a:	c41c                	sw	a5,8(s0)
    377c:	0905                	addi	s2,s2,1
    377e:	0007d763          	bgez	a5,378c <_puts_r+0xae>
    3782:	4c18                	lw	a4,24(s0)
    3784:	00e7ca63          	blt	a5,a4,3798 <_puts_r+0xba>
    3788:	01458863          	beq	a1,s4,3798 <_puts_r+0xba>
    378c:	401c                	lw	a5,0(s0)
    378e:	00178713          	addi	a4,a5,1
    3792:	c018                	sw	a4,0(s0)
    3794:	a38c                	sb	a1,0(a5)
    3796:	b761                	j	371e <_puts_r+0x40>
    3798:	8622                	mv	a2,s0
    379a:	8526                	mv	a0,s1
    379c:	200d                	jal	37be <__swbuf_r>
    379e:	f93510e3          	bne	a0,s3,371e <_puts_r+0x40>
    37a2:	b7d9                	j	3768 <_puts_r+0x8a>
    37a4:	401c                	lw	a5,0(s0)
    37a6:	00178713          	addi	a4,a5,1
    37aa:	c018                	sw	a4,0(s0)
    37ac:	4729                	li	a4,10
    37ae:	a398                	sb	a4,0(a5)
    37b0:	b771                	j	373c <_puts_r+0x5e>

000037b2 <puts>:
    37b2:	81418793          	addi	a5,gp,-2028 # 20000094 <_impure_ptr>
    37b6:	85aa                	mv	a1,a0
    37b8:	4388                	lw	a0,0(a5)
    37ba:	f25ff06f          	j	36de <_puts_r>

000037be <__swbuf_r>:
    37be:	1101                	addi	sp,sp,-32
    37c0:	cc22                	sw	s0,24(sp)
    37c2:	ca26                	sw	s1,20(sp)
    37c4:	c84a                	sw	s2,16(sp)
    37c6:	ce06                	sw	ra,28(sp)
    37c8:	c64e                	sw	s3,12(sp)
    37ca:	84aa                	mv	s1,a0
    37cc:	892e                	mv	s2,a1
    37ce:	8432                	mv	s0,a2
    37d0:	c501                	beqz	a0,37d8 <__swbuf_r+0x1a>
    37d2:	4d1c                	lw	a5,24(a0)
    37d4:	e391                	bnez	a5,37d8 <__swbuf_r+0x1a>
    37d6:	26f5                	jal	3bc2 <__sinit>
    37d8:	00001797          	auipc	a5,0x1
    37dc:	c1878793          	addi	a5,a5,-1000 # 43f0 <__sf_fake_stdin>
    37e0:	06f41763          	bne	s0,a5,384e <__swbuf_r+0x90>
    37e4:	40c0                	lw	s0,4(s1)
    37e6:	4c1c                	lw	a5,24(s0)
    37e8:	c41c                	sw	a5,8(s0)
    37ea:	245e                	lhu	a5,12(s0)
    37ec:	8ba1                	andi	a5,a5,8
    37ee:	c3c1                	beqz	a5,386e <__swbuf_r+0xb0>
    37f0:	481c                	lw	a5,16(s0)
    37f2:	cfb5                	beqz	a5,386e <__swbuf_r+0xb0>
    37f4:	481c                	lw	a5,16(s0)
    37f6:	4008                	lw	a0,0(s0)
    37f8:	0ff97993          	andi	s3,s2,255
    37fc:	0ff97913          	andi	s2,s2,255
    3800:	8d1d                	sub	a0,a0,a5
    3802:	485c                	lw	a5,20(s0)
    3804:	00f54663          	blt	a0,a5,3810 <__swbuf_r+0x52>
    3808:	85a2                	mv	a1,s0
    380a:	8526                	mv	a0,s1
    380c:	2c69                	jal	3aa6 <_fflush_r>
    380e:	e525                	bnez	a0,3876 <__swbuf_r+0xb8>
    3810:	441c                	lw	a5,8(s0)
    3812:	0505                	addi	a0,a0,1
    3814:	17fd                	addi	a5,a5,-1
    3816:	c41c                	sw	a5,8(s0)
    3818:	401c                	lw	a5,0(s0)
    381a:	00178713          	addi	a4,a5,1
    381e:	c018                	sw	a4,0(s0)
    3820:	01378023          	sb	s3,0(a5)
    3824:	485c                	lw	a5,20(s0)
    3826:	00a78863          	beq	a5,a0,3836 <__swbuf_r+0x78>
    382a:	245e                	lhu	a5,12(s0)
    382c:	8b85                	andi	a5,a5,1
    382e:	cb81                	beqz	a5,383e <__swbuf_r+0x80>
    3830:	47a9                	li	a5,10
    3832:	00f91663          	bne	s2,a5,383e <__swbuf_r+0x80>
    3836:	85a2                	mv	a1,s0
    3838:	8526                	mv	a0,s1
    383a:	24b5                	jal	3aa6 <_fflush_r>
    383c:	ed0d                	bnez	a0,3876 <__swbuf_r+0xb8>
    383e:	40f2                	lw	ra,28(sp)
    3840:	4462                	lw	s0,24(sp)
    3842:	854a                	mv	a0,s2
    3844:	44d2                	lw	s1,20(sp)
    3846:	4942                	lw	s2,16(sp)
    3848:	49b2                	lw	s3,12(sp)
    384a:	6105                	addi	sp,sp,32
    384c:	8082                	ret
    384e:	00001797          	auipc	a5,0x1
    3852:	bc278793          	addi	a5,a5,-1086 # 4410 <__sf_fake_stdout>
    3856:	00f41463          	bne	s0,a5,385e <__swbuf_r+0xa0>
    385a:	4480                	lw	s0,8(s1)
    385c:	b769                	j	37e6 <__swbuf_r+0x28>
    385e:	00001797          	auipc	a5,0x1
    3862:	b7278793          	addi	a5,a5,-1166 # 43d0 <__sf_fake_stderr>
    3866:	f8f410e3          	bne	s0,a5,37e6 <__swbuf_r+0x28>
    386a:	44c0                	lw	s0,12(s1)
    386c:	bfad                	j	37e6 <__swbuf_r+0x28>
    386e:	85a2                	mv	a1,s0
    3870:	8526                	mv	a0,s1
    3872:	2021                	jal	387a <__swsetup_r>
    3874:	d141                	beqz	a0,37f4 <__swbuf_r+0x36>
    3876:	597d                	li	s2,-1
    3878:	b7d9                	j	383e <__swbuf_r+0x80>

0000387a <__swsetup_r>:
    387a:	1141                	addi	sp,sp,-16
    387c:	81418793          	addi	a5,gp,-2028 # 20000094 <_impure_ptr>
    3880:	c226                	sw	s1,4(sp)
    3882:	4384                	lw	s1,0(a5)
    3884:	c422                	sw	s0,8(sp)
    3886:	c04a                	sw	s2,0(sp)
    3888:	c606                	sw	ra,12(sp)
    388a:	892a                	mv	s2,a0
    388c:	842e                	mv	s0,a1
    388e:	c489                	beqz	s1,3898 <__swsetup_r+0x1e>
    3890:	4c9c                	lw	a5,24(s1)
    3892:	e399                	bnez	a5,3898 <__swsetup_r+0x1e>
    3894:	8526                	mv	a0,s1
    3896:	2635                	jal	3bc2 <__sinit>
    3898:	00001797          	auipc	a5,0x1
    389c:	b5878793          	addi	a5,a5,-1192 # 43f0 <__sf_fake_stdin>
    38a0:	02f41b63          	bne	s0,a5,38d6 <__swsetup_r+0x5c>
    38a4:	40c0                	lw	s0,4(s1)
    38a6:	00c41703          	lh	a4,12(s0)
    38aa:	01071793          	slli	a5,a4,0x10
    38ae:	83c1                	srli	a5,a5,0x10
    38b0:	0087f693          	andi	a3,a5,8
    38b4:	eaad                	bnez	a3,3926 <__swsetup_r+0xac>
    38b6:	0107f693          	andi	a3,a5,16
    38ba:	ee95                	bnez	a3,38f6 <__swsetup_r+0x7c>
    38bc:	47a5                	li	a5,9
    38be:	00f92023          	sw	a5,0(s2)
    38c2:	04076713          	ori	a4,a4,64
    38c6:	a45a                	sh	a4,12(s0)
    38c8:	557d                	li	a0,-1
    38ca:	40b2                	lw	ra,12(sp)
    38cc:	4422                	lw	s0,8(sp)
    38ce:	4492                	lw	s1,4(sp)
    38d0:	4902                	lw	s2,0(sp)
    38d2:	0141                	addi	sp,sp,16
    38d4:	8082                	ret
    38d6:	00001797          	auipc	a5,0x1
    38da:	b3a78793          	addi	a5,a5,-1222 # 4410 <__sf_fake_stdout>
    38de:	00f41463          	bne	s0,a5,38e6 <__swsetup_r+0x6c>
    38e2:	4480                	lw	s0,8(s1)
    38e4:	b7c9                	j	38a6 <__swsetup_r+0x2c>
    38e6:	00001797          	auipc	a5,0x1
    38ea:	aea78793          	addi	a5,a5,-1302 # 43d0 <__sf_fake_stderr>
    38ee:	faf41ce3          	bne	s0,a5,38a6 <__swsetup_r+0x2c>
    38f2:	44c0                	lw	s0,12(s1)
    38f4:	bf4d                	j	38a6 <__swsetup_r+0x2c>
    38f6:	8b91                	andi	a5,a5,4
    38f8:	c39d                	beqz	a5,391e <__swsetup_r+0xa4>
    38fa:	584c                	lw	a1,52(s0)
    38fc:	c989                	beqz	a1,390e <__swsetup_r+0x94>
    38fe:	04440793          	addi	a5,s0,68
    3902:	00f58463          	beq	a1,a5,390a <__swsetup_r+0x90>
    3906:	854a                	mv	a0,s2
    3908:	2b19                	jal	3e1e <_free_r>
    390a:	02042a23          	sw	zero,52(s0)
    390e:	245e                	lhu	a5,12(s0)
    3910:	00042223          	sw	zero,4(s0)
    3914:	fdb7f793          	andi	a5,a5,-37
    3918:	a45e                	sh	a5,12(s0)
    391a:	481c                	lw	a5,16(s0)
    391c:	c01c                	sw	a5,0(s0)
    391e:	245e                	lhu	a5,12(s0)
    3920:	0087e793          	ori	a5,a5,8
    3924:	a45e                	sh	a5,12(s0)
    3926:	481c                	lw	a5,16(s0)
    3928:	eb99                	bnez	a5,393e <__swsetup_r+0xc4>
    392a:	245e                	lhu	a5,12(s0)
    392c:	20000713          	li	a4,512
    3930:	2807f793          	andi	a5,a5,640
    3934:	00e78563          	beq	a5,a4,393e <__swsetup_r+0xc4>
    3938:	85a2                	mv	a1,s0
    393a:	854a                	mv	a0,s2
    393c:	2989                	jal	3d8e <__smakebuf_r>
    393e:	245e                	lhu	a5,12(s0)
    3940:	0017f713          	andi	a4,a5,1
    3944:	c31d                	beqz	a4,396a <__swsetup_r+0xf0>
    3946:	485c                	lw	a5,20(s0)
    3948:	00042423          	sw	zero,8(s0)
    394c:	40f007b3          	neg	a5,a5
    3950:	cc1c                	sw	a5,24(s0)
    3952:	481c                	lw	a5,16(s0)
    3954:	4501                	li	a0,0
    3956:	fbb5                	bnez	a5,38ca <__swsetup_r+0x50>
    3958:	00c41783          	lh	a5,12(s0)
    395c:	0807f713          	andi	a4,a5,128
    3960:	d72d                	beqz	a4,38ca <__swsetup_r+0x50>
    3962:	0407e793          	ori	a5,a5,64
    3966:	a45e                	sh	a5,12(s0)
    3968:	b785                	j	38c8 <__swsetup_r+0x4e>
    396a:	8b89                	andi	a5,a5,2
    396c:	4701                	li	a4,0
    396e:	e391                	bnez	a5,3972 <__swsetup_r+0xf8>
    3970:	4858                	lw	a4,20(s0)
    3972:	c418                	sw	a4,8(s0)
    3974:	bff9                	j	3952 <__swsetup_r+0xd8>

00003976 <__sflush_r>:
    3976:	25de                	lhu	a5,12(a1)
    3978:	1101                	addi	sp,sp,-32
    397a:	cc22                	sw	s0,24(sp)
    397c:	ca26                	sw	s1,20(sp)
    397e:	ce06                	sw	ra,28(sp)
    3980:	c84a                	sw	s2,16(sp)
    3982:	c64e                	sw	s3,12(sp)
    3984:	0087f713          	andi	a4,a5,8
    3988:	84aa                	mv	s1,a0
    398a:	842e                	mv	s0,a1
    398c:	eb79                	bnez	a4,3a62 <__sflush_r+0xec>
    398e:	41d8                	lw	a4,4(a1)
    3990:	00e04d63          	bgtz	a4,39aa <__sflush_r+0x34>
    3994:	41b8                	lw	a4,64(a1)
    3996:	00e04a63          	bgtz	a4,39aa <__sflush_r+0x34>
    399a:	4501                	li	a0,0
    399c:	40f2                	lw	ra,28(sp)
    399e:	4462                	lw	s0,24(sp)
    39a0:	44d2                	lw	s1,20(sp)
    39a2:	4942                	lw	s2,16(sp)
    39a4:	49b2                	lw	s3,12(sp)
    39a6:	6105                	addi	sp,sp,32
    39a8:	8082                	ret
    39aa:	5458                	lw	a4,44(s0)
    39ac:	d77d                	beqz	a4,399a <__sflush_r+0x24>
    39ae:	0004a903          	lw	s2,0(s1)
    39b2:	01379693          	slli	a3,a5,0x13
    39b6:	0004a023          	sw	zero,0(s1)
    39ba:	0606db63          	bgez	a3,3a30 <__sflush_r+0xba>
    39be:	4870                	lw	a2,84(s0)
    39c0:	245e                	lhu	a5,12(s0)
    39c2:	8b91                	andi	a5,a5,4
    39c4:	c799                	beqz	a5,39d2 <__sflush_r+0x5c>
    39c6:	405c                	lw	a5,4(s0)
    39c8:	8e1d                	sub	a2,a2,a5
    39ca:	585c                	lw	a5,52(s0)
    39cc:	c399                	beqz	a5,39d2 <__sflush_r+0x5c>
    39ce:	403c                	lw	a5,64(s0)
    39d0:	8e1d                	sub	a2,a2,a5
    39d2:	545c                	lw	a5,44(s0)
    39d4:	500c                	lw	a1,32(s0)
    39d6:	4681                	li	a3,0
    39d8:	8526                	mv	a0,s1
    39da:	9782                	jalr	a5
    39dc:	57fd                	li	a5,-1
    39de:	245a                	lhu	a4,12(s0)
    39e0:	00f51d63          	bne	a0,a5,39fa <__sflush_r+0x84>
    39e4:	4094                	lw	a3,0(s1)
    39e6:	47f5                	li	a5,29
    39e8:	06d7e863          	bltu	a5,a3,3a58 <__sflush_r+0xe2>
    39ec:	204007b7          	lui	a5,0x20400
    39f0:	0785                	addi	a5,a5,1
    39f2:	00d7d7b3          	srl	a5,a5,a3
    39f6:	8b85                	andi	a5,a5,1
    39f8:	c3a5                	beqz	a5,3a58 <__sflush_r+0xe2>
    39fa:	481c                	lw	a5,16(s0)
    39fc:	00042223          	sw	zero,4(s0)
    3a00:	c01c                	sw	a5,0(s0)
    3a02:	01371793          	slli	a5,a4,0x13
    3a06:	0007d863          	bgez	a5,3a16 <__sflush_r+0xa0>
    3a0a:	57fd                	li	a5,-1
    3a0c:	00f51463          	bne	a0,a5,3a14 <__sflush_r+0x9e>
    3a10:	409c                	lw	a5,0(s1)
    3a12:	e391                	bnez	a5,3a16 <__sflush_r+0xa0>
    3a14:	c868                	sw	a0,84(s0)
    3a16:	584c                	lw	a1,52(s0)
    3a18:	0124a023          	sw	s2,0(s1)
    3a1c:	ddbd                	beqz	a1,399a <__sflush_r+0x24>
    3a1e:	04440793          	addi	a5,s0,68
    3a22:	00f58463          	beq	a1,a5,3a2a <__sflush_r+0xb4>
    3a26:	8526                	mv	a0,s1
    3a28:	2edd                	jal	3e1e <_free_r>
    3a2a:	02042a23          	sw	zero,52(s0)
    3a2e:	b7b5                	j	399a <__sflush_r+0x24>
    3a30:	500c                	lw	a1,32(s0)
    3a32:	4601                	li	a2,0
    3a34:	4685                	li	a3,1
    3a36:	8526                	mv	a0,s1
    3a38:	9702                	jalr	a4
    3a3a:	57fd                	li	a5,-1
    3a3c:	862a                	mv	a2,a0
    3a3e:	f8f511e3          	bne	a0,a5,39c0 <__sflush_r+0x4a>
    3a42:	409c                	lw	a5,0(s1)
    3a44:	dfb5                	beqz	a5,39c0 <__sflush_r+0x4a>
    3a46:	4775                	li	a4,29
    3a48:	00e78563          	beq	a5,a4,3a52 <__sflush_r+0xdc>
    3a4c:	4759                	li	a4,22
    3a4e:	04e79363          	bne	a5,a4,3a94 <__sflush_r+0x11e>
    3a52:	0124a023          	sw	s2,0(s1)
    3a56:	b791                	j	399a <__sflush_r+0x24>
    3a58:	04076713          	ori	a4,a4,64
    3a5c:	a45a                	sh	a4,12(s0)
    3a5e:	557d                	li	a0,-1
    3a60:	bf35                	j	399c <__sflush_r+0x26>
    3a62:	0105a983          	lw	s3,16(a1)
    3a66:	f2098ae3          	beqz	s3,399a <__sflush_r+0x24>
    3a6a:	0005a903          	lw	s2,0(a1)
    3a6e:	8b8d                	andi	a5,a5,3
    3a70:	0135a023          	sw	s3,0(a1)
    3a74:	41390933          	sub	s2,s2,s3
    3a78:	4701                	li	a4,0
    3a7a:	e391                	bnez	a5,3a7e <__sflush_r+0x108>
    3a7c:	49d8                	lw	a4,20(a1)
    3a7e:	c418                	sw	a4,8(s0)
    3a80:	f1205de3          	blez	s2,399a <__sflush_r+0x24>
    3a84:	541c                	lw	a5,40(s0)
    3a86:	500c                	lw	a1,32(s0)
    3a88:	86ca                	mv	a3,s2
    3a8a:	864e                	mv	a2,s3
    3a8c:	8526                	mv	a0,s1
    3a8e:	9782                	jalr	a5
    3a90:	00a04763          	bgtz	a0,3a9e <__sflush_r+0x128>
    3a94:	245e                	lhu	a5,12(s0)
    3a96:	0407e793          	ori	a5,a5,64
    3a9a:	a45e                	sh	a5,12(s0)
    3a9c:	b7c9                	j	3a5e <__sflush_r+0xe8>
    3a9e:	99aa                	add	s3,s3,a0
    3aa0:	40a90933          	sub	s2,s2,a0
    3aa4:	bff1                	j	3a80 <__sflush_r+0x10a>

00003aa6 <_fflush_r>:
    3aa6:	499c                	lw	a5,16(a1)
    3aa8:	c3a5                	beqz	a5,3b08 <_fflush_r+0x62>
    3aaa:	1101                	addi	sp,sp,-32
    3aac:	cc22                	sw	s0,24(sp)
    3aae:	ce06                	sw	ra,28(sp)
    3ab0:	842a                	mv	s0,a0
    3ab2:	c511                	beqz	a0,3abe <_fflush_r+0x18>
    3ab4:	4d1c                	lw	a5,24(a0)
    3ab6:	e781                	bnez	a5,3abe <_fflush_r+0x18>
    3ab8:	c62e                	sw	a1,12(sp)
    3aba:	2221                	jal	3bc2 <__sinit>
    3abc:	45b2                	lw	a1,12(sp)
    3abe:	00001797          	auipc	a5,0x1
    3ac2:	93278793          	addi	a5,a5,-1742 # 43f0 <__sf_fake_stdin>
    3ac6:	00f59c63          	bne	a1,a5,3ade <_fflush_r+0x38>
    3aca:	404c                	lw	a1,4(s0)
    3acc:	00c59783          	lh	a5,12(a1)
    3ad0:	c79d                	beqz	a5,3afe <_fflush_r+0x58>
    3ad2:	8522                	mv	a0,s0
    3ad4:	4462                	lw	s0,24(sp)
    3ad6:	40f2                	lw	ra,28(sp)
    3ad8:	6105                	addi	sp,sp,32
    3ada:	e9dff06f          	j	3976 <__sflush_r>
    3ade:	00001797          	auipc	a5,0x1
    3ae2:	93278793          	addi	a5,a5,-1742 # 4410 <__sf_fake_stdout>
    3ae6:	00f59463          	bne	a1,a5,3aee <_fflush_r+0x48>
    3aea:	440c                	lw	a1,8(s0)
    3aec:	b7c5                	j	3acc <_fflush_r+0x26>
    3aee:	00001797          	auipc	a5,0x1
    3af2:	8e278793          	addi	a5,a5,-1822 # 43d0 <__sf_fake_stderr>
    3af6:	fcf59be3          	bne	a1,a5,3acc <_fflush_r+0x26>
    3afa:	444c                	lw	a1,12(s0)
    3afc:	bfc1                	j	3acc <_fflush_r+0x26>
    3afe:	40f2                	lw	ra,28(sp)
    3b00:	4462                	lw	s0,24(sp)
    3b02:	4501                	li	a0,0
    3b04:	6105                	addi	sp,sp,32
    3b06:	8082                	ret
    3b08:	4501                	li	a0,0
    3b0a:	8082                	ret

00003b0c <std>:
    3b0c:	1141                	addi	sp,sp,-16
    3b0e:	c422                	sw	s0,8(sp)
    3b10:	c606                	sw	ra,12(sp)
    3b12:	842a                	mv	s0,a0
    3b14:	a54e                	sh	a1,12(a0)
    3b16:	a572                	sh	a2,14(a0)
    3b18:	00052023          	sw	zero,0(a0)
    3b1c:	00052223          	sw	zero,4(a0)
    3b20:	00052423          	sw	zero,8(a0)
    3b24:	06052223          	sw	zero,100(a0)
    3b28:	00052823          	sw	zero,16(a0)
    3b2c:	00052a23          	sw	zero,20(a0)
    3b30:	00052c23          	sw	zero,24(a0)
    3b34:	4621                	li	a2,8
    3b36:	4581                	li	a1,0
    3b38:	05c50513          	addi	a0,a0,92
    3b3c:	e24fc0ef          	jal	ra,160 <memset>
    3b40:	00000797          	auipc	a5,0x0
    3b44:	48278793          	addi	a5,a5,1154 # 3fc2 <__sread>
    3b48:	d05c                	sw	a5,36(s0)
    3b4a:	00000797          	auipc	a5,0x0
    3b4e:	4a478793          	addi	a5,a5,1188 # 3fee <__swrite>
    3b52:	d41c                	sw	a5,40(s0)
    3b54:	00000797          	auipc	a5,0x0
    3b58:	4e278793          	addi	a5,a5,1250 # 4036 <__sseek>
    3b5c:	d45c                	sw	a5,44(s0)
    3b5e:	00000797          	auipc	a5,0x0
    3b62:	50878793          	addi	a5,a5,1288 # 4066 <__sclose>
    3b66:	d000                	sw	s0,32(s0)
    3b68:	d81c                	sw	a5,48(s0)
    3b6a:	40b2                	lw	ra,12(sp)
    3b6c:	4422                	lw	s0,8(sp)
    3b6e:	0141                	addi	sp,sp,16
    3b70:	8082                	ret

00003b72 <_cleanup_r>:
    3b72:	00000597          	auipc	a1,0x0
    3b76:	f3458593          	addi	a1,a1,-204 # 3aa6 <_fflush_r>
    3b7a:	aa91                	j	3cce <_fwalk_reent>

00003b7c <__sfmoreglue>:
    3b7c:	1141                	addi	sp,sp,-16
    3b7e:	c226                	sw	s1,4(sp)
    3b80:	06800613          	li	a2,104
    3b84:	fff58493          	addi	s1,a1,-1
    3b88:	02c484b3          	mul	s1,s1,a2
    3b8c:	c04a                	sw	s2,0(sp)
    3b8e:	892e                	mv	s2,a1
    3b90:	c422                	sw	s0,8(sp)
    3b92:	c606                	sw	ra,12(sp)
    3b94:	07448593          	addi	a1,s1,116
    3b98:	262d                	jal	3ec2 <_malloc_r>
    3b9a:	842a                	mv	s0,a0
    3b9c:	cd01                	beqz	a0,3bb4 <__sfmoreglue+0x38>
    3b9e:	00052023          	sw	zero,0(a0)
    3ba2:	01252223          	sw	s2,4(a0)
    3ba6:	0531                	addi	a0,a0,12
    3ba8:	c408                	sw	a0,8(s0)
    3baa:	06848613          	addi	a2,s1,104
    3bae:	4581                	li	a1,0
    3bb0:	db0fc0ef          	jal	ra,160 <memset>
    3bb4:	8522                	mv	a0,s0
    3bb6:	40b2                	lw	ra,12(sp)
    3bb8:	4422                	lw	s0,8(sp)
    3bba:	4492                	lw	s1,4(sp)
    3bbc:	4902                	lw	s2,0(sp)
    3bbe:	0141                	addi	sp,sp,16
    3bc0:	8082                	ret

00003bc2 <__sinit>:
    3bc2:	4d1c                	lw	a5,24(a0)
    3bc4:	e7a5                	bnez	a5,3c2c <__sinit+0x6a>
    3bc6:	1141                	addi	sp,sp,-16
    3bc8:	c606                	sw	ra,12(sp)
    3bca:	c422                	sw	s0,8(sp)
    3bcc:	00000797          	auipc	a5,0x0
    3bd0:	fa678793          	addi	a5,a5,-90 # 3b72 <_cleanup_r>
    3bd4:	d51c                	sw	a5,40(a0)
    3bd6:	81c18793          	addi	a5,gp,-2020 # 2000009c <_global_impure_ptr>
    3bda:	439c                	lw	a5,0(a5)
    3bdc:	04052423          	sw	zero,72(a0)
    3be0:	04052623          	sw	zero,76(a0)
    3be4:	04052823          	sw	zero,80(a0)
    3be8:	00f51463          	bne	a0,a5,3bf0 <__sinit+0x2e>
    3bec:	4785                	li	a5,1
    3bee:	cd1c                	sw	a5,24(a0)
    3bf0:	842a                	mv	s0,a0
    3bf2:	2835                	jal	3c2e <__sfp>
    3bf4:	c048                	sw	a0,4(s0)
    3bf6:	8522                	mv	a0,s0
    3bf8:	281d                	jal	3c2e <__sfp>
    3bfa:	c408                	sw	a0,8(s0)
    3bfc:	8522                	mv	a0,s0
    3bfe:	2805                	jal	3c2e <__sfp>
    3c00:	c448                	sw	a0,12(s0)
    3c02:	4048                	lw	a0,4(s0)
    3c04:	4601                	li	a2,0
    3c06:	4591                	li	a1,4
    3c08:	f05ff0ef          	jal	ra,3b0c <std>
    3c0c:	4408                	lw	a0,8(s0)
    3c0e:	4605                	li	a2,1
    3c10:	45a5                	li	a1,9
    3c12:	efbff0ef          	jal	ra,3b0c <std>
    3c16:	4448                	lw	a0,12(s0)
    3c18:	4609                	li	a2,2
    3c1a:	45c9                	li	a1,18
    3c1c:	ef1ff0ef          	jal	ra,3b0c <std>
    3c20:	4785                	li	a5,1
    3c22:	cc1c                	sw	a5,24(s0)
    3c24:	40b2                	lw	ra,12(sp)
    3c26:	4422                	lw	s0,8(sp)
    3c28:	0141                	addi	sp,sp,16
    3c2a:	8082                	ret
    3c2c:	8082                	ret

00003c2e <__sfp>:
    3c2e:	1141                	addi	sp,sp,-16
    3c30:	81c18793          	addi	a5,gp,-2020 # 2000009c <_global_impure_ptr>
    3c34:	c226                	sw	s1,4(sp)
    3c36:	4384                	lw	s1,0(a5)
    3c38:	c04a                	sw	s2,0(sp)
    3c3a:	c606                	sw	ra,12(sp)
    3c3c:	4c9c                	lw	a5,24(s1)
    3c3e:	c422                	sw	s0,8(sp)
    3c40:	892a                	mv	s2,a0
    3c42:	e781                	bnez	a5,3c4a <__sfp+0x1c>
    3c44:	8526                	mv	a0,s1
    3c46:	f7dff0ef          	jal	ra,3bc2 <__sinit>
    3c4a:	04848493          	addi	s1,s1,72
    3c4e:	4480                	lw	s0,8(s1)
    3c50:	40dc                	lw	a5,4(s1)
    3c52:	17fd                	addi	a5,a5,-1
    3c54:	0007d663          	bgez	a5,3c60 <__sfp+0x32>
    3c58:	409c                	lw	a5,0(s1)
    3c5a:	cfb9                	beqz	a5,3cb8 <__sfp+0x8a>
    3c5c:	4084                	lw	s1,0(s1)
    3c5e:	bfc5                	j	3c4e <__sfp+0x20>
    3c60:	00c41703          	lh	a4,12(s0)
    3c64:	e739                	bnez	a4,3cb2 <__sfp+0x84>
    3c66:	77c1                	lui	a5,0xffff0
    3c68:	0785                	addi	a5,a5,1
    3c6a:	06042223          	sw	zero,100(s0)
    3c6e:	00042023          	sw	zero,0(s0)
    3c72:	00042223          	sw	zero,4(s0)
    3c76:	00042423          	sw	zero,8(s0)
    3c7a:	c45c                	sw	a5,12(s0)
    3c7c:	00042823          	sw	zero,16(s0)
    3c80:	00042a23          	sw	zero,20(s0)
    3c84:	00042c23          	sw	zero,24(s0)
    3c88:	4621                	li	a2,8
    3c8a:	4581                	li	a1,0
    3c8c:	05c40513          	addi	a0,s0,92
    3c90:	cd0fc0ef          	jal	ra,160 <memset>
    3c94:	02042a23          	sw	zero,52(s0)
    3c98:	02042c23          	sw	zero,56(s0)
    3c9c:	04042423          	sw	zero,72(s0)
    3ca0:	04042623          	sw	zero,76(s0)
    3ca4:	8522                	mv	a0,s0
    3ca6:	40b2                	lw	ra,12(sp)
    3ca8:	4422                	lw	s0,8(sp)
    3caa:	4492                	lw	s1,4(sp)
    3cac:	4902                	lw	s2,0(sp)
    3cae:	0141                	addi	sp,sp,16
    3cb0:	8082                	ret
    3cb2:	06840413          	addi	s0,s0,104
    3cb6:	bf71                	j	3c52 <__sfp+0x24>
    3cb8:	4591                	li	a1,4
    3cba:	854a                	mv	a0,s2
    3cbc:	ec1ff0ef          	jal	ra,3b7c <__sfmoreglue>
    3cc0:	c088                	sw	a0,0(s1)
    3cc2:	fd49                	bnez	a0,3c5c <__sfp+0x2e>
    3cc4:	47b1                	li	a5,12
    3cc6:	00f92023          	sw	a5,0(s2)
    3cca:	4401                	li	s0,0
    3ccc:	bfe1                	j	3ca4 <__sfp+0x76>

00003cce <_fwalk_reent>:
    3cce:	7179                	addi	sp,sp,-48
    3cd0:	d422                	sw	s0,40(sp)
    3cd2:	d04a                	sw	s2,32(sp)
    3cd4:	cc52                	sw	s4,24(sp)
    3cd6:	ca56                	sw	s5,20(sp)
    3cd8:	c85a                	sw	s6,16(sp)
    3cda:	c65e                	sw	s7,12(sp)
    3cdc:	d606                	sw	ra,44(sp)
    3cde:	d226                	sw	s1,36(sp)
    3ce0:	ce4e                	sw	s3,28(sp)
    3ce2:	8a2a                	mv	s4,a0
    3ce4:	8aae                	mv	s5,a1
    3ce6:	04850413          	addi	s0,a0,72
    3cea:	4901                	li	s2,0
    3cec:	4b05                	li	s6,1
    3cee:	5bfd                	li	s7,-1
    3cf0:	ec09                	bnez	s0,3d0a <_fwalk_reent+0x3c>
    3cf2:	50b2                	lw	ra,44(sp)
    3cf4:	5422                	lw	s0,40(sp)
    3cf6:	854a                	mv	a0,s2
    3cf8:	5492                	lw	s1,36(sp)
    3cfa:	5902                	lw	s2,32(sp)
    3cfc:	49f2                	lw	s3,28(sp)
    3cfe:	4a62                	lw	s4,24(sp)
    3d00:	4ad2                	lw	s5,20(sp)
    3d02:	4b42                	lw	s6,16(sp)
    3d04:	4bb2                	lw	s7,12(sp)
    3d06:	6145                	addi	sp,sp,48
    3d08:	8082                	ret
    3d0a:	4404                	lw	s1,8(s0)
    3d0c:	00442983          	lw	s3,4(s0)
    3d10:	19fd                	addi	s3,s3,-1
    3d12:	0009d463          	bgez	s3,3d1a <_fwalk_reent+0x4c>
    3d16:	4000                	lw	s0,0(s0)
    3d18:	bfe1                	j	3cf0 <_fwalk_reent+0x22>
    3d1a:	24de                	lhu	a5,12(s1)
    3d1c:	00fb7b63          	bgeu	s6,a5,3d32 <_fwalk_reent+0x64>
    3d20:	00e49783          	lh	a5,14(s1)
    3d24:	01778763          	beq	a5,s7,3d32 <_fwalk_reent+0x64>
    3d28:	85a6                	mv	a1,s1
    3d2a:	8552                	mv	a0,s4
    3d2c:	9a82                	jalr	s5
    3d2e:	00a96933          	or	s2,s2,a0
    3d32:	06848493          	addi	s1,s1,104
    3d36:	bfe9                	j	3d10 <_fwalk_reent+0x42>

00003d38 <__swhatbuf_r>:
    3d38:	7119                	addi	sp,sp,-128
    3d3a:	daa6                	sw	s1,116(sp)
    3d3c:	84ae                	mv	s1,a1
    3d3e:	00e59583          	lh	a1,14(a1)
    3d42:	dca2                	sw	s0,120(sp)
    3d44:	de86                	sw	ra,124(sp)
    3d46:	8432                	mv	s0,a2
    3d48:	0005db63          	bgez	a1,3d5e <__swhatbuf_r+0x26>
    3d4c:	24de                	lhu	a5,12(s1)
    3d4e:	0006a023          	sw	zero,0(a3)
    3d52:	0807f793          	andi	a5,a5,128
    3d56:	e39d                	bnez	a5,3d7c <__swhatbuf_r+0x44>
    3d58:	40000793          	li	a5,1024
    3d5c:	a015                	j	3d80 <__swhatbuf_r+0x48>
    3d5e:	0830                	addi	a2,sp,24
    3d60:	c636                	sw	a3,12(sp)
    3d62:	2e85                	jal	40d2 <_fstat_r>
    3d64:	46b2                	lw	a3,12(sp)
    3d66:	fe0543e3          	bltz	a0,3d4c <__swhatbuf_r+0x14>
    3d6a:	4772                	lw	a4,28(sp)
    3d6c:	67bd                	lui	a5,0xf
    3d6e:	8ff9                	and	a5,a5,a4
    3d70:	7779                	lui	a4,0xffffe
    3d72:	97ba                	add	a5,a5,a4
    3d74:	0017b793          	seqz	a5,a5
    3d78:	c29c                	sw	a5,0(a3)
    3d7a:	bff9                	j	3d58 <__swhatbuf_r+0x20>
    3d7c:	04000793          	li	a5,64
    3d80:	c01c                	sw	a5,0(s0)
    3d82:	50f6                	lw	ra,124(sp)
    3d84:	5466                	lw	s0,120(sp)
    3d86:	54d6                	lw	s1,116(sp)
    3d88:	4501                	li	a0,0
    3d8a:	6109                	addi	sp,sp,128
    3d8c:	8082                	ret

00003d8e <__smakebuf_r>:
    3d8e:	25de                	lhu	a5,12(a1)
    3d90:	1101                	addi	sp,sp,-32
    3d92:	cc22                	sw	s0,24(sp)
    3d94:	ce06                	sw	ra,28(sp)
    3d96:	ca26                	sw	s1,20(sp)
    3d98:	c84a                	sw	s2,16(sp)
    3d9a:	8b89                	andi	a5,a5,2
    3d9c:	842e                	mv	s0,a1
    3d9e:	cf89                	beqz	a5,3db8 <__smakebuf_r+0x2a>
    3da0:	04740793          	addi	a5,s0,71
    3da4:	c01c                	sw	a5,0(s0)
    3da6:	c81c                	sw	a5,16(s0)
    3da8:	4785                	li	a5,1
    3daa:	c85c                	sw	a5,20(s0)
    3dac:	40f2                	lw	ra,28(sp)
    3dae:	4462                	lw	s0,24(sp)
    3db0:	44d2                	lw	s1,20(sp)
    3db2:	4942                	lw	s2,16(sp)
    3db4:	6105                	addi	sp,sp,32
    3db6:	8082                	ret
    3db8:	0074                	addi	a3,sp,12
    3dba:	0030                	addi	a2,sp,8
    3dbc:	84aa                	mv	s1,a0
    3dbe:	f7bff0ef          	jal	ra,3d38 <__swhatbuf_r>
    3dc2:	45a2                	lw	a1,8(sp)
    3dc4:	892a                	mv	s2,a0
    3dc6:	8526                	mv	a0,s1
    3dc8:	28ed                	jal	3ec2 <_malloc_r>
    3dca:	e919                	bnez	a0,3de0 <__smakebuf_r+0x52>
    3dcc:	00c41783          	lh	a5,12(s0)
    3dd0:	2007f713          	andi	a4,a5,512
    3dd4:	ff61                	bnez	a4,3dac <__smakebuf_r+0x1e>
    3dd6:	9bf1                	andi	a5,a5,-4
    3dd8:	0027e793          	ori	a5,a5,2
    3ddc:	a45e                	sh	a5,12(s0)
    3dde:	b7c9                	j	3da0 <__smakebuf_r+0x12>
    3de0:	00000797          	auipc	a5,0x0
    3de4:	d9278793          	addi	a5,a5,-622 # 3b72 <_cleanup_r>
    3de8:	d49c                	sw	a5,40(s1)
    3dea:	245e                	lhu	a5,12(s0)
    3dec:	c008                	sw	a0,0(s0)
    3dee:	c808                	sw	a0,16(s0)
    3df0:	0807e793          	ori	a5,a5,128
    3df4:	a45e                	sh	a5,12(s0)
    3df6:	47a2                	lw	a5,8(sp)
    3df8:	c85c                	sw	a5,20(s0)
    3dfa:	47b2                	lw	a5,12(sp)
    3dfc:	cb99                	beqz	a5,3e12 <__smakebuf_r+0x84>
    3dfe:	00e41583          	lh	a1,14(s0)
    3e02:	8526                	mv	a0,s1
    3e04:	2601                	jal	4104 <_isatty_r>
    3e06:	c511                	beqz	a0,3e12 <__smakebuf_r+0x84>
    3e08:	245e                	lhu	a5,12(s0)
    3e0a:	9bf1                	andi	a5,a5,-4
    3e0c:	0017e793          	ori	a5,a5,1
    3e10:	a45e                	sh	a5,12(s0)
    3e12:	245e                	lhu	a5,12(s0)
    3e14:	00f96933          	or	s2,s2,a5
    3e18:	01241623          	sh	s2,12(s0)
    3e1c:	bf41                	j	3dac <__smakebuf_r+0x1e>

00003e1e <_free_r>:
    3e1e:	c1cd                	beqz	a1,3ec0 <_free_r+0xa2>
    3e20:	ffc5a783          	lw	a5,-4(a1)
    3e24:	1141                	addi	sp,sp,-16
    3e26:	c422                	sw	s0,8(sp)
    3e28:	c606                	sw	ra,12(sp)
    3e2a:	c226                	sw	s1,4(sp)
    3e2c:	ffc58413          	addi	s0,a1,-4
    3e30:	0007d363          	bgez	a5,3e36 <_free_r+0x18>
    3e34:	943e                	add	s0,s0,a5
    3e36:	84aa                	mv	s1,a0
    3e38:	2e05                	jal	4168 <__malloc_lock>
    3e3a:	85c18793          	addi	a5,gp,-1956 # 200000dc <__malloc_free_list>
    3e3e:	439c                	lw	a5,0(a5)
    3e40:	eb99                	bnez	a5,3e56 <_free_r+0x38>
    3e42:	00042223          	sw	zero,4(s0)
    3e46:	8481ae23          	sw	s0,-1956(gp) # 200000dc <__malloc_free_list>
    3e4a:	4422                	lw	s0,8(sp)
    3e4c:	40b2                	lw	ra,12(sp)
    3e4e:	8526                	mv	a0,s1
    3e50:	4492                	lw	s1,4(sp)
    3e52:	0141                	addi	sp,sp,16
    3e54:	ae19                	j	416a <__malloc_unlock>
    3e56:	00f47e63          	bgeu	s0,a5,3e72 <_free_r+0x54>
    3e5a:	4014                	lw	a3,0(s0)
    3e5c:	00d40733          	add	a4,s0,a3
    3e60:	00e79663          	bne	a5,a4,3e6c <_free_r+0x4e>
    3e64:	4398                	lw	a4,0(a5)
    3e66:	43dc                	lw	a5,4(a5)
    3e68:	9736                	add	a4,a4,a3
    3e6a:	c018                	sw	a4,0(s0)
    3e6c:	c05c                	sw	a5,4(s0)
    3e6e:	bfe1                	j	3e46 <_free_r+0x28>
    3e70:	87ba                	mv	a5,a4
    3e72:	43d8                	lw	a4,4(a5)
    3e74:	c319                	beqz	a4,3e7a <_free_r+0x5c>
    3e76:	fee47de3          	bgeu	s0,a4,3e70 <_free_r+0x52>
    3e7a:	4394                	lw	a3,0(a5)
    3e7c:	00d78633          	add	a2,a5,a3
    3e80:	00861f63          	bne	a2,s0,3e9e <_free_r+0x80>
    3e84:	4010                	lw	a2,0(s0)
    3e86:	96b2                	add	a3,a3,a2
    3e88:	c394                	sw	a3,0(a5)
    3e8a:	00d78633          	add	a2,a5,a3
    3e8e:	fac71ee3          	bne	a4,a2,3e4a <_free_r+0x2c>
    3e92:	4310                	lw	a2,0(a4)
    3e94:	4358                	lw	a4,4(a4)
    3e96:	96b2                	add	a3,a3,a2
    3e98:	c394                	sw	a3,0(a5)
    3e9a:	c3d8                	sw	a4,4(a5)
    3e9c:	b77d                	j	3e4a <_free_r+0x2c>
    3e9e:	00c47563          	bgeu	s0,a2,3ea8 <_free_r+0x8a>
    3ea2:	47b1                	li	a5,12
    3ea4:	c09c                	sw	a5,0(s1)
    3ea6:	b755                	j	3e4a <_free_r+0x2c>
    3ea8:	4010                	lw	a2,0(s0)
    3eaa:	00c406b3          	add	a3,s0,a2
    3eae:	00d71663          	bne	a4,a3,3eba <_free_r+0x9c>
    3eb2:	4314                	lw	a3,0(a4)
    3eb4:	4358                	lw	a4,4(a4)
    3eb6:	96b2                	add	a3,a3,a2
    3eb8:	c014                	sw	a3,0(s0)
    3eba:	c058                	sw	a4,4(s0)
    3ebc:	c3c0                	sw	s0,4(a5)
    3ebe:	b771                	j	3e4a <_free_r+0x2c>
    3ec0:	8082                	ret

00003ec2 <_malloc_r>:
    3ec2:	1101                	addi	sp,sp,-32
    3ec4:	ca26                	sw	s1,20(sp)
    3ec6:	00358493          	addi	s1,a1,3
    3eca:	98f1                	andi	s1,s1,-4
    3ecc:	ce06                	sw	ra,28(sp)
    3ece:	cc22                	sw	s0,24(sp)
    3ed0:	c84a                	sw	s2,16(sp)
    3ed2:	c64e                	sw	s3,12(sp)
    3ed4:	04a1                	addi	s1,s1,8
    3ed6:	47b1                	li	a5,12
    3ed8:	04f4f163          	bgeu	s1,a5,3f1a <_malloc_r+0x58>
    3edc:	44b1                	li	s1,12
    3ede:	04b4e063          	bltu	s1,a1,3f1e <_malloc_r+0x5c>
    3ee2:	892a                	mv	s2,a0
    3ee4:	2451                	jal	4168 <__malloc_lock>
    3ee6:	85c18793          	addi	a5,gp,-1956 # 200000dc <__malloc_free_list>
    3eea:	4398                	lw	a4,0(a5)
    3eec:	843a                	mv	s0,a4
    3eee:	e031                	bnez	s0,3f32 <_malloc_r+0x70>
    3ef0:	86018793          	addi	a5,gp,-1952 # 200000e0 <__malloc_sbrk_start>
    3ef4:	439c                	lw	a5,0(a5)
    3ef6:	e791                	bnez	a5,3f02 <_malloc_r+0x40>
    3ef8:	4581                	li	a1,0
    3efa:	854a                	mv	a0,s2
    3efc:	2851                	jal	3f90 <_sbrk_r>
    3efe:	86a1a023          	sw	a0,-1952(gp) # 200000e0 <__malloc_sbrk_start>
    3f02:	85a6                	mv	a1,s1
    3f04:	854a                	mv	a0,s2
    3f06:	2069                	jal	3f90 <_sbrk_r>
    3f08:	59fd                	li	s3,-1
    3f0a:	07351763          	bne	a0,s3,3f78 <_malloc_r+0xb6>
    3f0e:	47b1                	li	a5,12
    3f10:	00f92023          	sw	a5,0(s2)
    3f14:	854a                	mv	a0,s2
    3f16:	2c91                	jal	416a <__malloc_unlock>
    3f18:	a029                	j	3f22 <_malloc_r+0x60>
    3f1a:	fc04d2e3          	bgez	s1,3ede <_malloc_r+0x1c>
    3f1e:	47b1                	li	a5,12
    3f20:	c11c                	sw	a5,0(a0)
    3f22:	4501                	li	a0,0
    3f24:	40f2                	lw	ra,28(sp)
    3f26:	4462                	lw	s0,24(sp)
    3f28:	44d2                	lw	s1,20(sp)
    3f2a:	4942                	lw	s2,16(sp)
    3f2c:	49b2                	lw	s3,12(sp)
    3f2e:	6105                	addi	sp,sp,32
    3f30:	8082                	ret
    3f32:	401c                	lw	a5,0(s0)
    3f34:	8f85                	sub	a5,a5,s1
    3f36:	0207ce63          	bltz	a5,3f72 <_malloc_r+0xb0>
    3f3a:	46ad                	li	a3,11
    3f3c:	00f6f663          	bgeu	a3,a5,3f48 <_malloc_r+0x86>
    3f40:	c01c                	sw	a5,0(s0)
    3f42:	943e                	add	s0,s0,a5
    3f44:	c004                	sw	s1,0(s0)
    3f46:	a031                	j	3f52 <_malloc_r+0x90>
    3f48:	405c                	lw	a5,4(s0)
    3f4a:	02871263          	bne	a4,s0,3f6e <_malloc_r+0xac>
    3f4e:	84f1ae23          	sw	a5,-1956(gp) # 200000dc <__malloc_free_list>
    3f52:	854a                	mv	a0,s2
    3f54:	2c19                	jal	416a <__malloc_unlock>
    3f56:	00b40513          	addi	a0,s0,11
    3f5a:	00440793          	addi	a5,s0,4
    3f5e:	9961                	andi	a0,a0,-8
    3f60:	40f50733          	sub	a4,a0,a5
    3f64:	d361                	beqz	a4,3f24 <_malloc_r+0x62>
    3f66:	943a                	add	s0,s0,a4
    3f68:	8f89                	sub	a5,a5,a0
    3f6a:	c01c                	sw	a5,0(s0)
    3f6c:	bf65                	j	3f24 <_malloc_r+0x62>
    3f6e:	c35c                	sw	a5,4(a4)
    3f70:	b7cd                	j	3f52 <_malloc_r+0x90>
    3f72:	8722                	mv	a4,s0
    3f74:	4040                	lw	s0,4(s0)
    3f76:	bfa5                	j	3eee <_malloc_r+0x2c>
    3f78:	00350413          	addi	s0,a0,3
    3f7c:	9871                	andi	s0,s0,-4
    3f7e:	fc8503e3          	beq	a0,s0,3f44 <_malloc_r+0x82>
    3f82:	40a405b3          	sub	a1,s0,a0
    3f86:	854a                	mv	a0,s2
    3f88:	2021                	jal	3f90 <_sbrk_r>
    3f8a:	fb351de3          	bne	a0,s3,3f44 <_malloc_r+0x82>
    3f8e:	b741                	j	3f0e <_malloc_r+0x4c>

00003f90 <_sbrk_r>:
    3f90:	1141                	addi	sp,sp,-16
    3f92:	c422                	sw	s0,8(sp)
    3f94:	842a                	mv	s0,a0
    3f96:	852e                	mv	a0,a1
    3f98:	1ffff797          	auipc	a5,0x1ffff
    3f9c:	9a07ae23          	sw	zero,-1604(a5) # 20002954 <errno>
    3fa0:	c606                	sw	ra,12(sp)
    3fa2:	aceff0ef          	jal	ra,3270 <_sbrk>
    3fa6:	57fd                	li	a5,-1
    3fa8:	00f51963          	bne	a0,a5,3fba <_sbrk_r+0x2a>
    3fac:	1ffff797          	auipc	a5,0x1ffff
    3fb0:	9a878793          	addi	a5,a5,-1624 # 20002954 <errno>
    3fb4:	439c                	lw	a5,0(a5)
    3fb6:	c391                	beqz	a5,3fba <_sbrk_r+0x2a>
    3fb8:	c01c                	sw	a5,0(s0)
    3fba:	40b2                	lw	ra,12(sp)
    3fbc:	4422                	lw	s0,8(sp)
    3fbe:	0141                	addi	sp,sp,16
    3fc0:	8082                	ret

00003fc2 <__sread>:
    3fc2:	1141                	addi	sp,sp,-16
    3fc4:	c422                	sw	s0,8(sp)
    3fc6:	842e                	mv	s0,a1
    3fc8:	00e59583          	lh	a1,14(a1)
    3fcc:	c606                	sw	ra,12(sp)
    3fce:	2a79                	jal	416c <_read_r>
    3fd0:	00054963          	bltz	a0,3fe2 <__sread+0x20>
    3fd4:	487c                	lw	a5,84(s0)
    3fd6:	97aa                	add	a5,a5,a0
    3fd8:	c87c                	sw	a5,84(s0)
    3fda:	40b2                	lw	ra,12(sp)
    3fdc:	4422                	lw	s0,8(sp)
    3fde:	0141                	addi	sp,sp,16
    3fe0:	8082                	ret
    3fe2:	245e                	lhu	a5,12(s0)
    3fe4:	777d                	lui	a4,0xfffff
    3fe6:	177d                	addi	a4,a4,-1
    3fe8:	8ff9                	and	a5,a5,a4
    3fea:	a45e                	sh	a5,12(s0)
    3fec:	b7fd                	j	3fda <__sread+0x18>

00003fee <__swrite>:
    3fee:	25de                	lhu	a5,12(a1)
    3ff0:	1101                	addi	sp,sp,-32
    3ff2:	cc22                	sw	s0,24(sp)
    3ff4:	ca26                	sw	s1,20(sp)
    3ff6:	c84a                	sw	s2,16(sp)
    3ff8:	c64e                	sw	s3,12(sp)
    3ffa:	ce06                	sw	ra,28(sp)
    3ffc:	1007f793          	andi	a5,a5,256
    4000:	84aa                	mv	s1,a0
    4002:	842e                	mv	s0,a1
    4004:	8932                	mv	s2,a2
    4006:	89b6                	mv	s3,a3
    4008:	c791                	beqz	a5,4014 <__swrite+0x26>
    400a:	00e59583          	lh	a1,14(a1)
    400e:	4689                	li	a3,2
    4010:	4601                	li	a2,0
    4012:	220d                	jal	4134 <_lseek_r>
    4014:	245e                	lhu	a5,12(s0)
    4016:	777d                	lui	a4,0xfffff
    4018:	177d                	addi	a4,a4,-1
    401a:	8ff9                	and	a5,a5,a4
    401c:	a45e                	sh	a5,12(s0)
    401e:	00e41583          	lh	a1,14(s0)
    4022:	4462                	lw	s0,24(sp)
    4024:	40f2                	lw	ra,28(sp)
    4026:	86ce                	mv	a3,s3
    4028:	864a                	mv	a2,s2
    402a:	49b2                	lw	s3,12(sp)
    402c:	4942                	lw	s2,16(sp)
    402e:	8526                	mv	a0,s1
    4030:	44d2                	lw	s1,20(sp)
    4032:	6105                	addi	sp,sp,32
    4034:	a825                	j	406c <_write_r>

00004036 <__sseek>:
    4036:	1141                	addi	sp,sp,-16
    4038:	c422                	sw	s0,8(sp)
    403a:	842e                	mv	s0,a1
    403c:	00e59583          	lh	a1,14(a1)
    4040:	c606                	sw	ra,12(sp)
    4042:	28cd                	jal	4134 <_lseek_r>
    4044:	57fd                	li	a5,-1
    4046:	245a                	lhu	a4,12(s0)
    4048:	00f51a63          	bne	a0,a5,405c <__sseek+0x26>
    404c:	77fd                	lui	a5,0xfffff
    404e:	17fd                	addi	a5,a5,-1
    4050:	8ff9                	and	a5,a5,a4
    4052:	a45e                	sh	a5,12(s0)
    4054:	40b2                	lw	ra,12(sp)
    4056:	4422                	lw	s0,8(sp)
    4058:	0141                	addi	sp,sp,16
    405a:	8082                	ret
    405c:	6785                	lui	a5,0x1
    405e:	8fd9                	or	a5,a5,a4
    4060:	a45e                	sh	a5,12(s0)
    4062:	c868                	sw	a0,84(s0)
    4064:	bfc5                	j	4054 <__sseek+0x1e>

00004066 <__sclose>:
    4066:	00e59583          	lh	a1,14(a1)
    406a:	a825                	j	40a2 <_close_r>

0000406c <_write_r>:
    406c:	1141                	addi	sp,sp,-16
    406e:	c422                	sw	s0,8(sp)
    4070:	842a                	mv	s0,a0
    4072:	852e                	mv	a0,a1
    4074:	85b2                	mv	a1,a2
    4076:	8636                	mv	a2,a3
    4078:	1ffff797          	auipc	a5,0x1ffff
    407c:	8c07ae23          	sw	zero,-1828(a5) # 20002954 <errno>
    4080:	c606                	sw	ra,12(sp)
    4082:	9b0ff0ef          	jal	ra,3232 <_write>
    4086:	57fd                	li	a5,-1
    4088:	00f51963          	bne	a0,a5,409a <_write_r+0x2e>
    408c:	1ffff797          	auipc	a5,0x1ffff
    4090:	8c878793          	addi	a5,a5,-1848 # 20002954 <errno>
    4094:	439c                	lw	a5,0(a5)
    4096:	c391                	beqz	a5,409a <_write_r+0x2e>
    4098:	c01c                	sw	a5,0(s0)
    409a:	40b2                	lw	ra,12(sp)
    409c:	4422                	lw	s0,8(sp)
    409e:	0141                	addi	sp,sp,16
    40a0:	8082                	ret

000040a2 <_close_r>:
    40a2:	1141                	addi	sp,sp,-16
    40a4:	c422                	sw	s0,8(sp)
    40a6:	842a                	mv	s0,a0
    40a8:	852e                	mv	a0,a1
    40aa:	1ffff797          	auipc	a5,0x1ffff
    40ae:	8a07a523          	sw	zero,-1878(a5) # 20002954 <errno>
    40b2:	c606                	sw	ra,12(sp)
    40b4:	20f5                	jal	41a0 <_close>
    40b6:	57fd                	li	a5,-1
    40b8:	00f51963          	bne	a0,a5,40ca <_close_r+0x28>
    40bc:	1ffff797          	auipc	a5,0x1ffff
    40c0:	89878793          	addi	a5,a5,-1896 # 20002954 <errno>
    40c4:	439c                	lw	a5,0(a5)
    40c6:	c391                	beqz	a5,40ca <_close_r+0x28>
    40c8:	c01c                	sw	a5,0(s0)
    40ca:	40b2                	lw	ra,12(sp)
    40cc:	4422                	lw	s0,8(sp)
    40ce:	0141                	addi	sp,sp,16
    40d0:	8082                	ret

000040d2 <_fstat_r>:
    40d2:	1141                	addi	sp,sp,-16
    40d4:	c422                	sw	s0,8(sp)
    40d6:	842a                	mv	s0,a0
    40d8:	852e                	mv	a0,a1
    40da:	85b2                	mv	a1,a2
    40dc:	1ffff797          	auipc	a5,0x1ffff
    40e0:	8607ac23          	sw	zero,-1928(a5) # 20002954 <errno>
    40e4:	c606                	sw	ra,12(sp)
    40e6:	20e9                	jal	41b0 <_fstat>
    40e8:	57fd                	li	a5,-1
    40ea:	00f51963          	bne	a0,a5,40fc <_fstat_r+0x2a>
    40ee:	1ffff797          	auipc	a5,0x1ffff
    40f2:	86678793          	addi	a5,a5,-1946 # 20002954 <errno>
    40f6:	439c                	lw	a5,0(a5)
    40f8:	c391                	beqz	a5,40fc <_fstat_r+0x2a>
    40fa:	c01c                	sw	a5,0(s0)
    40fc:	40b2                	lw	ra,12(sp)
    40fe:	4422                	lw	s0,8(sp)
    4100:	0141                	addi	sp,sp,16
    4102:	8082                	ret

00004104 <_isatty_r>:
    4104:	1141                	addi	sp,sp,-16
    4106:	c422                	sw	s0,8(sp)
    4108:	842a                	mv	s0,a0
    410a:	852e                	mv	a0,a1
    410c:	1ffff797          	auipc	a5,0x1ffff
    4110:	8407a423          	sw	zero,-1976(a5) # 20002954 <errno>
    4114:	c606                	sw	ra,12(sp)
    4116:	206d                	jal	41c0 <_isatty>
    4118:	57fd                	li	a5,-1
    411a:	00f51963          	bne	a0,a5,412c <_isatty_r+0x28>
    411e:	1ffff797          	auipc	a5,0x1ffff
    4122:	83678793          	addi	a5,a5,-1994 # 20002954 <errno>
    4126:	439c                	lw	a5,0(a5)
    4128:	c391                	beqz	a5,412c <_isatty_r+0x28>
    412a:	c01c                	sw	a5,0(s0)
    412c:	40b2                	lw	ra,12(sp)
    412e:	4422                	lw	s0,8(sp)
    4130:	0141                	addi	sp,sp,16
    4132:	8082                	ret

00004134 <_lseek_r>:
    4134:	1141                	addi	sp,sp,-16
    4136:	c422                	sw	s0,8(sp)
    4138:	842a                	mv	s0,a0
    413a:	852e                	mv	a0,a1
    413c:	85b2                	mv	a1,a2
    413e:	8636                	mv	a2,a3
    4140:	1ffff797          	auipc	a5,0x1ffff
    4144:	8007aa23          	sw	zero,-2028(a5) # 20002954 <errno>
    4148:	c606                	sw	ra,12(sp)
    414a:	2059                	jal	41d0 <_lseek>
    414c:	57fd                	li	a5,-1
    414e:	00f51963          	bne	a0,a5,4160 <_lseek_r+0x2c>
    4152:	1ffff797          	auipc	a5,0x1ffff
    4156:	80278793          	addi	a5,a5,-2046 # 20002954 <errno>
    415a:	439c                	lw	a5,0(a5)
    415c:	c391                	beqz	a5,4160 <_lseek_r+0x2c>
    415e:	c01c                	sw	a5,0(s0)
    4160:	40b2                	lw	ra,12(sp)
    4162:	4422                	lw	s0,8(sp)
    4164:	0141                	addi	sp,sp,16
    4166:	8082                	ret

00004168 <__malloc_lock>:
    4168:	8082                	ret

0000416a <__malloc_unlock>:
    416a:	8082                	ret

0000416c <_read_r>:
    416c:	1141                	addi	sp,sp,-16
    416e:	c422                	sw	s0,8(sp)
    4170:	842a                	mv	s0,a0
    4172:	852e                	mv	a0,a1
    4174:	85b2                	mv	a1,a2
    4176:	8636                	mv	a2,a3
    4178:	1fffe797          	auipc	a5,0x1fffe
    417c:	7c07ae23          	sw	zero,2012(a5) # 20002954 <errno>
    4180:	c606                	sw	ra,12(sp)
    4182:	28b9                	jal	41e0 <_read>
    4184:	57fd                	li	a5,-1
    4186:	00f51963          	bne	a0,a5,4198 <_read_r+0x2c>
    418a:	1fffe797          	auipc	a5,0x1fffe
    418e:	7ca78793          	addi	a5,a5,1994 # 20002954 <errno>
    4192:	439c                	lw	a5,0(a5)
    4194:	c391                	beqz	a5,4198 <_read_r+0x2c>
    4196:	c01c                	sw	a5,0(s0)
    4198:	40b2                	lw	ra,12(sp)
    419a:	4422                	lw	s0,8(sp)
    419c:	0141                	addi	sp,sp,16
    419e:	8082                	ret

000041a0 <_close>:
    41a0:	05800793          	li	a5,88
    41a4:	1fffe717          	auipc	a4,0x1fffe
    41a8:	7af72823          	sw	a5,1968(a4) # 20002954 <errno>
    41ac:	557d                	li	a0,-1
    41ae:	8082                	ret

000041b0 <_fstat>:
    41b0:	05800793          	li	a5,88
    41b4:	1fffe717          	auipc	a4,0x1fffe
    41b8:	7af72023          	sw	a5,1952(a4) # 20002954 <errno>
    41bc:	557d                	li	a0,-1
    41be:	8082                	ret

000041c0 <_isatty>:
    41c0:	05800793          	li	a5,88
    41c4:	1fffe717          	auipc	a4,0x1fffe
    41c8:	78f72823          	sw	a5,1936(a4) # 20002954 <errno>
    41cc:	4501                	li	a0,0
    41ce:	8082                	ret

000041d0 <_lseek>:
    41d0:	05800793          	li	a5,88
    41d4:	1fffe717          	auipc	a4,0x1fffe
    41d8:	78f72023          	sw	a5,1920(a4) # 20002954 <errno>
    41dc:	557d                	li	a0,-1
    41de:	8082                	ret

000041e0 <_read>:
    41e0:	05800793          	li	a5,88
    41e4:	1fffe717          	auipc	a4,0x1fffe
    41e8:	76f72823          	sw	a5,1904(a4) # 20002954 <errno>
    41ec:	557d                	li	a0,-1
    41ee:	8082                	ret
    41f0:	4c54                	lw	a3,28(s0)
    41f2:	5f4c                	lw	a1,60(a4)
    41f4:	324e                	lhu	a1,36(a2)
    41f6:	00003233          	snez	tp,zero
    41fa:	0000                	unimp
    41fc:	1e0c                	addi	a1,sp,816
    41fe:	0000                	unimp
    4200:	1d02                	slli	s10,s10,0x20
    4202:	0000                	unimp
    4204:	1b98                	addi	a4,sp,496
    4206:	0000                	unimp
    4208:	1d72                	slli	s10,s10,0x3c
    420a:	0000                	unimp
    420c:	1b98                	addi	a4,sp,496
    420e:	0000                	unimp
    4210:	1c94                	addi	a3,sp,624
    4212:	0000                	unimp
    4214:	1bf4                	addi	a3,sp,508
    4216:	0000                	unimp
    4218:	1b98                	addi	a4,sp,496
    421a:	0000                	unimp
    421c:	1cda                	slli	s9,s9,0x36
    421e:	0000                	unimp
    4220:	1cf0                	addi	a2,sp,636
    4222:	0000                	unimp
    4224:	1e06                	slli	t3,t3,0x21
    4226:	0000                	unimp
    4228:	1c9e                	slli	s9,s9,0x27
	...

0000422c <MyCfgDescr>:
    422c:	0209 0043 0102 8000 0932 0004 0100 0202     ..C.....2.......
    423c:	0001 2405 1000 0501 0124 0100 2404 0202     ...$....$....$..
    424c:	2405 0006 0701 8105 4003 0100 0409 0001     .$.......@......
    425c:	0a02 0000 0700 0205 4002 0000 0507 0283     .........@......
    426c:	0040 0000                                   @...

00004270 <MyDevDescr>:
    4270:	0112 0110 ffff 40ff 1a86 fe0c 0001 0201     .......@........
    4280:	0100 0000                                   ....

00004284 <MyManuInfo>:
    4284:	030e 0077 0063 0068 002e 0063 006e 0000     ..w.c.h...c.n...

00004294 <MyProdInfo>:
    4294:	0316 0055 0053 0042 0020 0053 0065 0072     ..U.S.B. .S.e.r.
    42a4:	0069 0061 006c 0000                         i.a.l...

000042ac <MySerNumInfo>:
    42ac:	0316 0030 0031 0032 0033 0034 0035 0036     ..0.1.2.3.4.5.6.
    42bc:	0037 0038 0039 0000 7453 7261 6974 676e     7.8.9...Starting
    42cc:	000d 0000                                   ....

000042d0 <__clz_tab>:
    42d0:	0100 0202 0303 0303 0404 0404 0404 0404     ................
    42e0:	0505 0505 0505 0505 0505 0505 0505 0505     ................
    42f0:	0606 0606 0606 0606 0606 0606 0606 0606     ................
    4300:	0606 0606 0606 0606 0606 0606 0606 0606     ................
    4310:	0707 0707 0707 0707 0707 0707 0707 0707     ................
    4320:	0707 0707 0707 0707 0707 0707 0707 0707     ................
    4330:	0707 0707 0707 0707 0707 0707 0707 0707     ................
    4340:	0707 0707 0707 0707 0707 0707 0707 0707     ................
    4350:	0808 0808 0808 0808 0808 0808 0808 0808     ................
    4360:	0808 0808 0808 0808 0808 0808 0808 0808     ................
    4370:	0808 0808 0808 0808 0808 0808 0808 0808     ................
    4380:	0808 0808 0808 0808 0808 0808 0808 0808     ................
    4390:	0808 0808 0808 0808 0808 0808 0808 0808     ................
    43a0:	0808 0808 0808 0808 0808 0808 0808 0808     ................
    43b0:	0808 0808 0808 0808 0808 0808 0808 0808     ................
    43c0:	0808 0808 0808 0808 0808 0808 0808 0808     ................

000043d0 <__sf_fake_stderr>:
	...

000043f0 <__sf_fake_stdin>:
	...

00004410 <__sf_fake_stdout>:
	...
